

HI-TECH Software PIC PRO Macro Assembler V9.83 build 10920 
                                                                                               Wed Dec 04 19:25:43 2019

HI-TECH Software Omniscient Code Generator (PRO mode) build 10920
     1                           	processor	16F685
     2                           	opt	pw 120
     3                           	opt	pm
     4                           	psect	idataBANK0,global,class=CODE,delta=2
     5                           	psect	strings,global,class=STRING,delta=2
     6                           	psect	cinit,global,class=CODE,delta=2
     7                           	psect	bssCOMMON,global,class=COMMON,space=1,delta=1
     8                           	psect	bssBANK0,global,class=BANK0,space=1,delta=1
     9                           	psect	dataBANK0,global,class=BANK0,space=1,delta=1
    10                           	psect	clrtext,global,class=CODE,delta=2
    11                           	psect	inittext,global,class=CODE,delta=2
    12                           	psect	cstackCOMMON,global,class=COMMON,space=1,delta=1
    13                           	psect	cstackBANK0,global,class=BANK0,space=1,delta=1
    14                           	psect	maintext,global,class=CODE,delta=2
    15                           	psect	text791,local,class=CODE,delta=2
    16                           	psect	text792,local,class=CODE,delta=2
    17                           	psect	text793,local,class=CODE,delta=2
    18                           	psect	text794,local,class=CODE,delta=2
    19                           	psect	text795,local,class=CODE,delta=2
    20                           	psect	text796,local,class=CODE,delta=2
    21                           	psect	text797,local,class=CODE,delta=2
    22                           	psect	text798,local,class=CODE,delta=2
    23                           	psect	text799,local,class=CODE,delta=2
    24                           	psect	text800,local,class=CODE,delta=2
    25                           	psect	text801,local,class=CODE,delta=2
    26                           	psect	text802,local,class=CODE,delta=2
    27                           	psect	swtext1,local,class=CONST,delta=2
    28                           	psect	text803,local,class=CODE,delta=2
    29                           	psect	text804,local,class=CODE,delta=2
    30                           	psect	text805,local,class=CODE,delta=2
    31                           	psect	text806,local,class=CODE,delta=2
    32                           	psect	text807,local,class=CODE,delta=2
    33                           	psect	text808,local,class=CODE,delta=2
    34                           	psect	text809,local,class=CODE,delta=2
    35                           	psect	text810,local,class=CODE,delta=2
    36                           	psect	text811,local,class=CODE,delta=2
    37                           	psect	text812,local,class=CODE,delta=2
    38                           	psect	text813,local,class=CODE,delta=2
    39                           	psect	text814,local,class=CODE,delta=2
    40                           	psect	text815,local,class=CODE,delta=2
    41                           	psect	text816,local,class=CODE,delta=2
    42                           	psect	text817,local,class=CODE,delta=2
    43                           	psect	intentry,global,class=CODE,delta=2
    44                           	psect	text818,local,class=CODE,delta=2
    45                           	psect	pa_nodes,global,class=CODE,delta=2
    46                           	dabs	1,0x19D,1
    47                           	dabs	1,0x19E,1
    48                           	dabs	1,0x19E,1
    49                           	dabs	1,0x19E,1
    50                           	dabs	1,0x18C,1
    51                           	dabs	1,0x19E,1
    52                           	dabs	1,0x19E,1
    53                           	dabs	1,0x19E,1
    54                           	dabs	1,0x19E,1
    55                           	dabs	1,0x19D,1
    56                           	dabs	1,0x19D,1
    57                           	dabs	1,0x19D,1
    58                           	dabs	1,0x19D,1
    59                           	dabs	1,0x19D,1
    60                           	dabs	1,0x18C,1
    61                           	dabs	1,0x7E,2
    62  000A                     
    63                           	psect	idataBANK0
    64  0420                     __pidataBANK0:	
    65                           
    66                           ;initializer for _PDUDATA
    67  0420  3402               	retlw	2
    68  0421  3415               	retlw	21
    69  0422  3400               	retlw	0
    70  0423  3400               	retlw	0
    71  0424  3400               	retlw	0
    72  0425  3400               	retlw	0
    73  0426  3400               	retlw	0
    74  0427  3400               	retlw	0
    75  0428  3402               	retlw	2
    76  0429  3401               	retlw	1
    77  042A  3405               	retlw	5
    78  042B  3403               	retlw	3
    79  042C  3419               	retlw	25
    80  042D  34C1               	retlw	193
    81  042E  3403               	retlw	3
    82  042F  3407               	retlw	7
    83  0430  3416               	retlw	22
    84  0431  3411               	retlw	17
    85  0432  3411               	retlw	17
    86  0433  3411               	retlw	17
    87  0434  34B0               	retlw	176
    88  0435  34B0               	retlw	176
    89  0436  34B0               	retlw	176
    90  0437  3400               	retlw	0
    91  0438  3400               	retlw	0
    92  0439  3400               	retlw	0
    93                           
    94                           	psect	strings
    95  000B                     __pstrings:	
    96  000B                     stringtab:	
    97                           ;	global	stringdir,stringtab,__stringbase
    98                           
    99  000B                     stringcode:	
   100                           ;	String table - string pointers are 1 byte each
   101                           
   102  000B                     stringdir:	
   103  000B  3000               	movlw	high stringdir
   104  000C  008A               	movwf	10
   105  000D  0804               	movf	4,w
   106  000E  0A84               	incf	4,f
   107  000F  0782               	addwf	2,f
   108  0010                     __stringbase:	
   109  0010  3400               	retlw	0
   110  0011                     _LDT8900config:	
   111  0011  3400               	retlw	0
   112  0012  346F               	retlw	111
   113  0013  34E0               	retlw	224
   114  0014  3401               	retlw	1
   115  0015  3456               	retlw	86
   116  0016  3481               	retlw	129
   117  0017  3402               	retlw	2
   118  0018  3466               	retlw	102
   119  0019  3417               	retlw	23
   120  001A  3404               	retlw	4
   121  001B  349C               	retlw	156
   122  001C  34C9               	retlw	201
   123  001D  3405               	retlw	5
   124  001E  3466               	retlw	102
   125  001F  3437               	retlw	55
   126  0020  3407               	retlw	7
   127  0021  3400               	retlw	0
   128  0022  3430               	retlw	48
   129  0023  3408               	retlw	8
   130  0024  346C               	retlw	108
   131  0025  3490               	retlw	144
   132  0026  3409               	retlw	9
   133  0027  3448               	retlw	72
   134  0028  3400               	retlw	0
   135  0029  340A               	retlw	10
   136  002A  347F               	retlw	127
   137  002B  34FD               	retlw	253
   138  002C  340B               	retlw	11
   139  002D  3400               	retlw	0
   140  002E  3408               	retlw	8
   141  002F  340C               	retlw	12
   142  0030  3400               	retlw	0
   143  0031  3400               	retlw	0
   144  0032  340D               	retlw	13
   145  0033  3448               	retlw	72
   146  0034  34BD               	retlw	189
   147  0035  3416               	retlw	22
   148  0036  3400               	retlw	0
   149  0037  34FF               	retlw	255
   150  0038  3417               	retlw	23
   151  0039  3480               	retlw	128
   152  003A  3405               	retlw	5
   153  003B  3418               	retlw	24
   154  003C  3400               	retlw	0
   155  003D  3467               	retlw	103
   156  003E  3419               	retlw	25
   157  003F  3416               	retlw	22
   158  0040  34DB               	retlw	219
   159  0041  341A               	retlw	26
   160  0042  3419               	retlw	25
   161  0043  34E0               	retlw	224
   162  0044  341B               	retlw	27
   163  0045  3413               	retlw	19
   164  0046  3400               	retlw	0
   165  0047  341C               	retlw	28
   166  0048  3418               	retlw	24
   167  0049  3400               	retlw	0
   168  004A  3420               	retlw	32
   169  004B  3448               	retlw	72
   170  004C  3408               	retlw	8
   171  004D  3421               	retlw	33
   172  004E  343F               	retlw	63
   173  004F  34C7               	retlw	199
   174  0050  3422               	retlw	34
   175  0051  3420               	retlw	32
   176  0052  3400               	retlw	0
   177  0053  3423               	retlw	35
   178  0054  3403               	retlw	3
   179  0055  3400               	retlw	0
   180  0056  3424               	retlw	36
   181  0057  34AA               	retlw	170
   182  0058  34AA               	retlw	170
   183  0059  3425               	retlw	37
   184  005A  34AA               	retlw	170
   185  005B  34AA               	retlw	170
   186  005C  3426               	retlw	38
   187  005D  34AA               	retlw	170
   188  005E  34AA               	retlw	170
   189  005F  3427               	retlw	39
   190  0060  34AA               	retlw	170
   191  0061  34AA               	retlw	170
   192  0062  3428               	retlw	40
   193  0063  3444               	retlw	68
   194  0064  3402               	retlw	2
   195  0065  3429               	retlw	41
   196  0066  34B0               	retlw	176
   197  0067  3400               	retlw	0
   198  0068  342A               	retlw	42
   199  0069  34FD               	retlw	253
   200  006A  34B0               	retlw	176
   201  006B  342B               	retlw	43
   202  006C  3400               	retlw	0
   203  006D  340F               	retlw	15
   204  006E  342C               	retlw	44
   205  006F  3401               	retlw	1
   206  0070  3401               	retlw	1
   207  0071  342D               	retlw	45
   208  0072  3401               	retlw	1
   209  0073  3452               	retlw	82
   210  0074  3434               	retlw	52
   211  0075  3480               	retlw	128
   212  0076  3480               	retlw	128
   213  0077                     _WHITE_INDEX37:	
   214  0077  348D               	retlw	141
   215  0078  34D2               	retlw	210
   216  0079  3457               	retlw	87
   217  007A  34A1               	retlw	161
   218  007B  343D               	retlw	61
   219  007C  34A7               	retlw	167
   220  007D  3466               	retlw	102
   221  007E  34B0               	retlw	176
   222  007F  3475               	retlw	117
   223  0080  3431               	retlw	49
   224  0081  3411               	retlw	17
   225  0082  3448               	retlw	72
   226  0083  3496               	retlw	150
   227  0084  3477               	retlw	119
   228  0085  34F8               	retlw	248
   229  0086  34E3               	retlw	227
   230  0087  3446               	retlw	70
   231  0088  34E9               	retlw	233
   232  0089  34AB               	retlw	171
   233  008A  34D0               	retlw	208
   234  008B  349E               	retlw	158
   235  008C  3453               	retlw	83
   236  008D  3433               	retlw	51
   237  008E  34D8               	retlw	216
   238  008F  34BA               	retlw	186
   239  0090  3498               	retlw	152
   240  0091  3408               	retlw	8
   241  0092  3424               	retlw	36
   242  0093  34CB               	retlw	203
   243  0094  343B               	retlw	59
   244  0095  34FC               	retlw	252
   245  0096  3471               	retlw	113
   246  0097  34A3               	retlw	163
   247  0098  34F4               	retlw	244
   248  0099  3455               	retlw	85
   249  009A  3468               	retlw	104
   250  009B  34CF               	retlw	207
   251  009C  34A9               	retlw	169
   252  009D  3419               	retlw	25
   253  009E                     _WHITE_INDEX38:	
   254  009E  34D6               	retlw	214
   255  009F  34C5               	retlw	197
   256  00A0  3444               	retlw	68
   257  00A1  3420               	retlw	32
   258  00A2  3459               	retlw	89
   259  00A3  34DE               	retlw	222
   260  00A4  34E1               	retlw	225
   261  00A5  348F               	retlw	143
   262  00A6  341B               	retlw	27
   263  00A7  34A5               	retlw	165
   264  00A8  34AF               	retlw	175
   265  00A9  3442               	retlw	66
   266  00AA  347B               	retlw	123
   267  00AB  344E               	retlw	78
   268  00AC  34CD               	retlw	205
   269  00AD  3460               	retlw	96
   270  00AE  34EB               	retlw	235
   271  00AF  3462               	retlw	98
   272  00B0  3422               	retlw	34
   273  00B1  3490               	retlw	144
   274  00B2  342C               	retlw	44
   275  00B3  34EF               	retlw	239
   276  00B4  34F0               	retlw	240
   277  00B5  34C7               	retlw	199
   278  00B6  348D               	retlw	141
   279  00B7  34D2               	retlw	210
   280  00B8  3457               	retlw	87
   281  00B9  34A1               	retlw	161
   282  00BA  343D               	retlw	61
   283  00BB  34A7               	retlw	167
   284  00BC  3466               	retlw	102
   285  00BD  34B0               	retlw	176
   286  00BE  3475               	retlw	117
   287  00BF  3431               	retlw	49
   288  00C0  3411               	retlw	17
   289  00C1  3448               	retlw	72
   290  00C2  3496               	retlw	150
   291  00C3  3477               	retlw	119
   292  00C4  34F8               	retlw	248
   293  00C5                     _WHITE_INDEX39:	
   294  00C5  341F               	retlw	31
   295  00C6  3437               	retlw	55
   296  00C7  344A               	retlw	74
   297  00C8  345F               	retlw	95
   298  00C9  3485               	retlw	133
   299  00CA  34F6               	retlw	246
   300  00CB  349C               	retlw	156
   301  00CC  349A               	retlw	154
   302  00CD  34C1               	retlw	193
   303  00CE  34D6               	retlw	214
   304  00CF  34C5               	retlw	197
   305  00D0  3444               	retlw	68
   306  00D1  3420               	retlw	32
   307  00D2  3459               	retlw	89
   308  00D3  34DE               	retlw	222
   309  00D4  34E1               	retlw	225
   310  00D5  348F               	retlw	143
   311  00D6  341B               	retlw	27
   312  00D7  34A5               	retlw	165
   313  00D8  34AF               	retlw	175
   314  00D9  3442               	retlw	66
   315  00DA  347B               	retlw	123
   316  00DB  344E               	retlw	78
   317  00DC  34CD               	retlw	205
   318  00DD  3460               	retlw	96
   319  00DE  34EB               	retlw	235
   320  00DF  3462               	retlw	98
   321  00E0  3422               	retlw	34
   322  00E1  3490               	retlw	144
   323  00E2  342C               	retlw	44
   324  00E3  34EF               	retlw	239
   325  00E4  34F0               	retlw	240
   326  00E5  34C7               	retlw	199
   327  00E6  348D               	retlw	141
   328  00E7  34D2               	retlw	210
   329  00E8  3457               	retlw	87
   330  00E9  34A1               	retlw	161
   331  00EA  343D               	retlw	61
   332  00EB  34A7               	retlw	167
   333  019D                     _PSTRCON	set	413	;_PSTRCON
   334  019E                     _SRCON	set	414	;_SRCON
   335  0CF5                     _C1SEN	set	3317	;_C1SEN
   336  0CF4                     _C2REN	set	3316	;_C2REN
   337  0C67                     _EEPGD	set	3175	;_EEPGD
   338  0CF2                     _PULSR	set	3314	;_PULSR
   339  0CF3                     _PULSS	set	3315	;_PULSS
   340  0CF6                     _SR0	set	3318	;_SR0
   341  0CF7                     _SR1	set	3319	;_SR1
   342  0CE8                     _STRA	set	3304	;_STRA
   343  0CE9                     _STRB	set	3305	;_STRB
   344  0CEA                     _STRC	set	3306	;_STRC
   345  0CEB                     _STRD	set	3307	;_STRD
   346  0CEC                     _STRSYNC	set	3308	;_STRSYNC
   347  0C62                     _WREN	set	3170	;_WREN
   348  001F                     _ADCON0	set	31
   349  0019                     _CMCON0	set	25
   350  000B                     _INTCON	set	11
   351  001B                     _MSCKCON	set	27
   352  0005                     _PORTA	set	5
   353  0007                     _PORTC	set	7
   354  0010                     _T1CON	set	16
   355  000F                     _TMR1H	set	15
   356  000E                     _TMR1L	set	14
   357  005F                     _GIE	set	95
   358  005E                     _PEIE	set	94
   359  002D                     _RA5	set	45
   360  002E                     _RA6	set	46
   361  002F                     _RA7	set	47
   362  003A                     _RC2	set	58
   363  003B                     _RC3	set	59
   364  003C                     _RC4	set	60
   365  003D                     _RC5	set	61
   366  0060                     _TMR1IF	set	96
   367  0080                     _TMR1ON	set	128
   368  009F                     _ADCON1	set	159
   369  0091                     _ANSEL	set	145
   370  0081                     _OPTION	set	129
   371  008F                     _OSCCON	set	143
   372  0085                     _TRISA	set	133
   373  0087                     _TRISC	set	135
   374  0095                     _WPUA	set	149
   375  0088                     _WPUC	set	136
   376  0460                     _TMR1IE	set	1120
   377                           
   378                           	psect	cinit
   379  04B4                     start_initialization:	
   380  04B4  3020               	movlw	low __pbssBANK0
   381                           
   382                           ; Clear objects allocated to COMMON
   383  04B5  01FB               	clrf	__pbssCOMMON& (0+127)
   384                           
   385                           ; Clear objects allocated to BANK0
   386  04B6  1383               	bcf	3,7	;select IRP bank0
   387  04B7  0084               	movwf	4
   388  04B8  3043               	movlw	low (__pbssBANK0+35)
   389  04B9  2513               	fcall	clear_ram
   390                           
   391                           ; Initialize objects allocated to BANK0
   392  04BA  305D               	movlw	low (__pdataBANK0+26)
   393  04BB  00FD               	movwf	125
   394  04BC  3004               	movlw	high __pidataBANK0
   395  04BD  00FE               	movwf	126
   396  04BE  3020               	movlw	low __pidataBANK0
   397  04BF  00FF               	movwf	127
   398  04C0  3043               	movlw	low __pdataBANK0
   399  04C1  0084               	movwf	4
   400  04C2  24D9               	fcall	init_ram
   401  04C3                     end_of_initialization:	
   402                           ;End of C runtime variable initialization code
   403                           
   404  04C3  0183               	clrf	3
   405  04C4  2C3A               	ljmp	_main	;jump to C main() function
   406                           
   407                           	psect	bssCOMMON
   408  007B                     __pbssCOMMON:	
   409  007B                     _RegH:	
   410  007B                     	ds	1
   411                           
   412                           	psect	bssBANK0
   413  0020                     __pbssBANK0:	
   414  0020                     _rxtimeout:	
   415  0020                     	ds	2
   416  0022                     _LT8920_work_sta:	
   417  0022                     	ds	1
   418  0023                     _RegL:	
   419  0023                     	ds	1
   420  0024                     _ledsta:	
   421  0024                     	ds	1
   422  0025                     _rxflag:	
   423  0025                     	ds	1
   424  0026                     _RXADVDATA:	
   425  0026                     	ds	29
   426                           
   427                           	psect	dataBANK0
   428  0043                     __pdataBANK0:	
   429  0043                     _PDUDATA:	
   430  0043                     	ds	26
   431                           
   432                           	psect	clrtext
   433  0513                     clear_ram:	
   434                           ;	Called with FSR containing the base address, and
   435                           ;	W with the last address+1
   436                           
   437  0513  0064               	clrwdt	;clear the watchdog before getting into this loop
   438  0514                     clrloop:	
   439  0514  0180               	clrf	0	;clear RAM location pointed to by FSR
   440  0515  0A84               	incf	4,f	;increment pointer
   441  0516  0604               	xorwf	4,w	;XOR with final address
   442  0517  1903               	btfsc	3,2	;have we reached the end yet?
   443  0518  3400               	retlw	0	;all done for this memory range, return
   444  0519  0604               	xorwf	4,w	;XOR again to restore value
   445  051A  2D14               	goto	clrloop	;do the next byte
   446                           
   447                           	psect	inittext
   448  04D5                     init_fetch:	
   449                           ;	Called with low address in FSR and high address in W
   450                           
   451  04D5  087E               	movf	126,w
   452  04D6  008A               	movwf	10
   453  04D7  087F               	movf	127,w
   454  04D8  0082               	movwf	2
   455  04D9                     init_ram:	
   456                           ;Called with:
   457                           ;	high address of idata address in btemp 
   458                           ;	low address of idata address in btemp+1 
   459                           ;	low address of data in FSR
   460                           ;	high address + 1 of data in btemp-1
   461                           
   462  04D9  24D5               	fcall	init_fetch
   463  04DA  0080               	movwf	0
   464  04DB  0A84               	incf	4,f
   465  04DC  0804               	movf	4,w
   466  04DD  067D               	xorwf	125,w
   467  04DE  1903               	btfsc	3,2
   468  04DF  3400               	retlw	0
   469  04E0  0AFF               	incf	127,f
   470  04E1  1903               	btfsc	3,2
   471  04E2  0AFE               	incf	126,f
   472  04E3  2CD9               	goto	init_ram
   473                           
   474                           	psect	cstackCOMMON
   475  0070                     __pcstackCOMMON:	
   476  0070                     ?_LT89XX_INIT:	
   477  0070                     ?_LT89xx_ModeSet:	
   478                           ; 0 bytes @ 0x0
   479                           
   480  0070                     ?_LT8920_ble_tx:	
   481                           ; 0 bytes @ 0x0
   482                           
   483  0070                     ?_LT8920_ble_rx:	
   484                           ; 0 bytes @ 0x0
   485                           
   486  0070                     ?_LT8920_ble_tx_enable:	
   487                           ; 0 bytes @ 0x0
   488                           
   489  0070                     ?_DELAY_MS:	
   490                           ; 0 bytes @ 0x0
   491                           
   492  0070                     ?_LT8920_ble_rx_start:	
   493                           ; 0 bytes @ 0x0
   494                           
   495  0070                     ?_LT_ReadReg:	
   496                           ; 0 bytes @ 0x0
   497                           
   498  0070                     ?_LT8920_ble_rx_enable:	
   499                           ; 0 bytes @ 0x0
   500                           
   501  0070                     ?_ISR:	
   502                           ; 0 bytes @ 0x0
   503                           
   504  0070                     ??_ISR:	
   505                           ; 0 bytes @ 0x0
   506                           
   507  0070                     ?_Init:	
   508                           ; 0 bytes @ 0x0
   509                           
   510  0070                     ?_main:	
   511                           ; 0 bytes @ 0x0
   512                           
   513  0070                     ?_ble_chanel_scan:	
   514                           ; 0 bytes @ 0x0
   515                           
   516  0070                     ?_SPI_SendByte:	
   517                           ; 0 bytes @ 0x0
   518                           
   519  0070                     ?_SPI_ReadByte:	
   520                           ; 0 bytes @ 0x0
   521                           
   522  0070                     ?_roll_data:	
   523                           ; 1 bytes @ 0x0
   524                           
   525                           
   526                           ; 1 bytes @ 0x0
   527  0070                     	ds	2
   528  0072                     ??_DELAY_MS:	
   529  0072                     ??_Init:	
   530                           ; 0 bytes @ 0x2
   531                           
   532  0072                     ??_SPI_SendByte:	
   533                           ; 0 bytes @ 0x2
   534                           
   535  0072                     ??_SPI_ReadByte:	
   536                           ; 0 bytes @ 0x2
   537                           
   538  0072                     ??_roll_data:	
   539                           ; 0 bytes @ 0x2
   540                           
   541  0072                     ?_LT8920_pdudata_white:	
   542                           ; 0 bytes @ 0x2
   543                           
   544  0072                     ?_LT8920_ble_to_localdata:	
   545                           ; 0 bytes @ 0x2
   546                           
   547  0072                     ?_check_sum:	
   548                           ; 0 bytes @ 0x2
   549                           
   550  0072                     check_sum@len:	
   551                           ; 1 bytes @ 0x2
   552                           
   553  0072                     SPI_SendByte@buf:	
   554                           ; 1 bytes @ 0x2
   555                           
   556  0072                     SPI_ReadByte@retvalue:	
   557                           ; 1 bytes @ 0x2
   558                           
   559  0072                     LT8920_pdudata_white@PDUDATA:	
   560                           ; 1 bytes @ 0x2
   561                           
   562  0072                     LT8920_ble_to_localdata@ADVDATA:	
   563                           ; 1 bytes @ 0x2
   564                           
   565  0072                     DELAY_MS@dly:	
   566                           ; 1 bytes @ 0x2
   567                           
   568                           
   569                           ; 2 bytes @ 0x2
   570  0072                     	ds	1
   571  0073                     ??_check_sum:	
   572  0073                     SPI_SendByte@mcnt:	
   573                           ; 0 bytes @ 0x3
   574                           
   575  0073                     SPI_ReadByte@mcnt:	
   576                           ; 1 bytes @ 0x3
   577                           
   578  0073                     roll_data@roll_in:	
   579                           ; 1 bytes @ 0x3
   580                           
   581  0073                     LT8920_pdudata_white@len:	
   582                           ; 1 bytes @ 0x3
   583                           
   584  0073                     LT8920_ble_to_localdata@len:	
   585                           ; 1 bytes @ 0x3
   586                           
   587                           
   588                           ; 1 bytes @ 0x3
   589  0073                     	ds	1
   590  0074                     ??_LT_ReadReg:	
   591  0074                     ?_LT_WriteReg:	
   592                           ; 0 bytes @ 0x4
   593                           
   594  0074                     ?_LT_WriteBUF_ble:	
   595                           ; 0 bytes @ 0x4
   596                           
   597  0074                     ??_LT8920_pdudata_white:	
   598                           ; 0 bytes @ 0x4
   599                           
   600  0074                     ?_LT_ReadBUF_ble:	
   601                           ; 0 bytes @ 0x4
   602                           
   603  0074                     DELAY_MS@Tms:	
   604                           ; 1 bytes @ 0x4
   605                           
   606  0074                     LT_ReadReg@reg:	
   607                           ; 1 bytes @ 0x4
   608                           
   609  0074                     LT_WriteReg@H:	
   610                           ; 1 bytes @ 0x4
   611                           
   612  0074                     LT_WriteBUF_ble@pBuf:	
   613                           ; 1 bytes @ 0x4
   614                           
   615  0074                     LT_ReadBUF_ble@pBuf:	
   616                           ; 1 bytes @ 0x4
   617                           
   618  0074                     roll_data@roll_out:	
   619                           ; 1 bytes @ 0x4
   620                           
   621  0074                     LT8920_ble_to_localdata@adv_offset:	
   622                           ; 1 bytes @ 0x4
   623                           
   624                           
   625                           ; 1 bytes @ 0x4
   626  0074                     	ds	1
   627  0075                     ??_LT8920_ble_to_localdata:	
   628  0075                     check_sum@sum:	
   629                           ; 0 bytes @ 0x5
   630                           
   631  0075                     LT_WriteReg@L:	
   632                           ; 1 bytes @ 0x5
   633                           
   634  0075                     LT_WriteBUF_ble@len:	
   635                           ; 1 bytes @ 0x5
   636                           
   637  0075                     LT_ReadBUF_ble@lenth:	
   638                           ; 1 bytes @ 0x5
   639                           
   640  0075                     roll_data@i:	
   641                           ; 1 bytes @ 0x5
   642                           
   643                           
   644                           ; 1 bytes @ 0x5
   645  0075                     	ds	1
   646  0076                     ??_LT_WriteReg:	
   647  0076                     ??_LT_WriteBUF_ble:	
   648                           ; 0 bytes @ 0x6
   649                           
   650  0076                     ??_LT_ReadBUF_ble:	
   651                           ; 0 bytes @ 0x6
   652                           
   653  0076                     ?_get_crc:	
   654                           ; 0 bytes @ 0x6
   655                           
   656  0076                     check_sum@buf:	
   657                           ; 0 bytes @ 0x6
   658                           
   659  0076                     LT_WriteReg@reg:	
   660                           ; 1 bytes @ 0x6
   661                           
   662  0076                     get_crc@lenth:	
   663                           ; 1 bytes @ 0x6
   664                           
   665                           
   666                           ; 1 bytes @ 0x6
   667  0076                     	ds	1
   668  0077                     ??_LT89XX_INIT:	
   669  0077                     ??_LT89xx_ModeSet:	
   670                           ; 0 bytes @ 0x7
   671                           
   672  0077                     ?_LT8920_ble_write_reg:	
   673                           ; 0 bytes @ 0x7
   674                           
   675  0077                     check_sum@i:	
   676                           ; 0 bytes @ 0x7
   677                           
   678  0077                     LT_WriteBUF_ble@reg:	
   679                           ; 1 bytes @ 0x7
   680                           
   681  0077                     LT89XX_INIT@CFG_CNT:	
   682                           ; 1 bytes @ 0x7
   683                           
   684  0077                     LT89xx_ModeSet@dat1:	
   685                           ; 1 bytes @ 0x7
   686                           
   687  0077                     LT8920_ble_write_reg@first:	
   688                           ; 1 bytes @ 0x7
   689                           
   690                           
   691                           ; 1 bytes @ 0x7
   692  0077                     	ds	1
   693  0078                     LT_WriteBUF_ble@i:	
   694  0078                     LT_ReadBUF_ble@reg:	
   695                           ; 1 bytes @ 0x8
   696                           
   697  0078                     LT8920_ble_write_reg@second:	
   698                           ; 1 bytes @ 0x8
   699                           
   700  0078                     LT8920_pdudata_white@chanel:	
   701                           ; 1 bytes @ 0x8
   702                           
   703                           
   704                           ; 1 bytes @ 0x8
   705  0078                     	ds	1
   706  0079                     ??_LT8920_ble_write_reg:	
   707  0079                     ?_LT8920_write_ble_fifo:	
   708                           ; 0 bytes @ 0x9
   709                           
   710  0079                     LT_ReadBUF_ble@i:	
   711                           ; 0 bytes @ 0x9
   712                           
   713  0079                     LT8920_ble_write_reg@reg:	
   714                           ; 1 bytes @ 0x9
   715                           
   716  0079                     LT8920_write_ble_fifo@len:	
   717                           ; 1 bytes @ 0x9
   718                           
   719  0079                     LT8920_pdudata_white@i:	
   720                           ; 1 bytes @ 0x9
   721                           
   722                           
   723                           ; 1 bytes @ 0x9
   724  0079                     	ds	1
   725  007A                     ??_LT8920_ble_tx_enable:	
   726  007A                     ??_LT8920_ble_rx_start:	
   727                           ; 0 bytes @ 0xA
   728                           
   729  007A                     ??_LT8920_ble_rx_enable:	
   730                           ; 0 bytes @ 0xA
   731                           
   732  007A                     ??_LT8920_write_ble_fifo:	
   733                           ; 0 bytes @ 0xA
   734                           
   735  007A                     ?_ble_read_fifo:	
   736                           ; 0 bytes @ 0xA
   737                           
   738  007A                     LT8920_write_ble_fifo@txdata:	
   739                           ; 0 bytes @ 0xA
   740                           
   741  007A                     ble_read_fifo@len:	
   742                           ; 1 bytes @ 0xA
   743                           
   744  007A                     LT8920_ble_rx_start@chanel:	
   745                           ; 1 bytes @ 0xA
   746                           
   747                           
   748                           ; 1 bytes @ 0xA
   749  007A                     	ds	1
   750  007B                     ??_LT8920_ble_tx:	
   751  007B                     ??_LT8920_ble_rx:	
   752                           ; 0 bytes @ 0xB
   753                           
   754  007B                     ??_LT8920_ble_tx_start:	
   755                           ; 0 bytes @ 0xB
   756                           
   757  007B                     ??_LT8920_read_ble_fifo:	
   758                           ; 0 bytes @ 0xB
   759                           
   760  007B                     ??_main:	
   761                           ; 0 bytes @ 0xB
   762                           
   763  007B                     ??_ble_chanel_scan:	
   764                           ; 0 bytes @ 0xB
   765                           
   766  007B                     ??_ble_read_fifo:	
   767                           ; 0 bytes @ 0xB
   768                           
   769                           
   770                           	psect	cstackBANK0
   771  005D                     __pcstackBANK0:	
   772                           ; 0 bytes @ 0xB
   773                           
   774  005D                     ??_get_crc:	
   775  005D                     ble_read_fifo@buf:	
   776                           ; 0 bytes @ 0x0
   777                           
   778  005D                     LT8920_ble_to_localdata@chanel:	
   779                           ; 1 bytes @ 0x0
   780                           
   781                           
   782                           ; 1 bytes @ 0x0
   783  005D                     	ds	1
   784  005E                     LT8920_ble_to_localdata@i:	
   785                           
   786                           ; 1 bytes @ 0x1
   787  005E                     	ds	1
   788  005F                     ?_LT8920_read_ble_fifo:	
   789  005F                     LT8920_read_ble_fifo@RXADVDATA:	
   790                           ; 0 bytes @ 0x2
   791                           
   792                           
   793                           ; 1 bytes @ 0x2
   794  005F                     	ds	1
   795  0060                     LT8920_read_ble_fifo@len:	
   796                           
   797                           ; 1 bytes @ 0x3
   798  0060                     	ds	1
   799  0061                     LT8920_read_ble_fifo@chanel:	
   800                           
   801                           ; 1 bytes @ 0x4
   802  0061                     	ds	1
   803  0062                     ble_chanel_scan@chanel:	
   804  0062                     get_crc@c0:	
   805                           ; 1 bytes @ 0x5
   806                           
   807                           
   808                           ; 1 bytes @ 0x5
   809  0062                     	ds	1
   810  0063                     ble_chanel_scan@i:	
   811  0063                     get_crc@c1:	
   812                           ; 1 bytes @ 0x6
   813                           
   814                           
   815                           ; 1 bytes @ 0x6
   816  0063                     	ds	1
   817  0064                     LT8920_ble_rx@i:	
   818  0064                     get_crc@c2:	
   819                           ; 1 bytes @ 0x7
   820                           
   821                           
   822                           ; 1 bytes @ 0x7
   823  0064                     	ds	1
   824  0065                     get_crc@i:	
   825                           
   826                           ; 1 bytes @ 0x8
   827  0065                     	ds	1
   828  0066                     get_crc@user_data_buf:	
   829                           
   830                           ; 1 bytes @ 0x9
   831  0066                     	ds	1
   832  0067                     get_crc@e:	
   833                           
   834                           ; 1 bytes @ 0xA
   835  0067                     	ds	1
   836  0068                     ?_LT8920_ble_tx_start:	
   837  0068                     LT8920_ble_tx_start@PDUDATA:	
   838                           ; 0 bytes @ 0xB
   839                           
   840                           
   841                           ; 1 bytes @ 0xB
   842  0068                     	ds	1
   843  0069                     LT8920_ble_tx_start@len:	
   844                           
   845                           ; 1 bytes @ 0xC
   846  0069                     	ds	1
   847  006A                     LT8920_ble_tx_start@chanel:	
   848                           
   849                           ; 1 bytes @ 0xD
   850  006A                     	ds	1
   851                           
   852                           	psect	maintext
   853  043A                     __pmaintext:	
   854 ;;Data sizes: Strings 0, constant 219, data 26, bss 36, persistent 0 stack 0
   855 ;;Auto spaces:   Size  Autos    Used
   856 ;; COMMON          14     11      12
   857 ;; BANK0           80     14      75
   858 ;; BANK1           32      0       0
   859 ;;
   860 ;; Pointer list with targets:
   861 ;; LT8920_read_ble_fifo@RXADVDATA	PTR unsigned char  size(1) Largest target is 29
   862 ;;		 -> RXADVDATA(BANK0[29]), 
   863 ;;
   864 ;; LT8920_ble_tx_start@PDUDATA	PTR unsigned char  size(1) Largest target is 26
   865 ;;		 -> PDUDATA(BANK0[26]), 
   866 ;;
   867 ;; LT8920_ble_to_localdata@ADVDATA	PTR unsigned char  size(1) Largest target is 29
   868 ;;		 -> RXADVDATA(BANK0[29]), 
   869 ;;
   870 ;; LT8920_pdudata_white@PDUDATA	PTR unsigned char  size(1) Largest target is 26
   871 ;;		 -> PDUDATA(BANK0[26]), 
   872 ;;
   873 ;; get_crc@user_data_buf	PTR unsigned char  size(1) Largest target is 26
   874 ;;		 -> PDUDATA(BANK0[26]), 
   875 ;;
   876 ;; ble_read_fifo@buf	PTR unsigned char  size(1) Largest target is 29
   877 ;;		 -> RXADVDATA(BANK0[29]), 
   878 ;;
   879 ;; LT8920_write_ble_fifo@txdata	PTR unsigned char  size(1) Largest target is 26
   880 ;;		 -> PDUDATA(BANK0[26]), 
   881 ;;
   882 ;; LT_ReadBUF_ble@pBuf	PTR unsigned char  size(1) Largest target is 29
   883 ;;		 -> RXADVDATA(BANK0[29]), 
   884 ;;
   885 ;; LT_WriteBUF_ble@pBuf	PTR unsigned char  size(1) Largest target is 26
   886 ;;		 -> PDUDATA(BANK0[26]), 
   887 ;;
   888 ;; check_sum@buf	PTR unsigned char  size(1) Largest target is 29
   889 ;;		 -> RXADVDATA(BANK0[29]), 
   890 ;;
   891 ;;
   892 ;; Critical Paths under _main in COMMON
   893 ;;
   894 ;;   _ble_chanel_scan->_LT8920_ble_rx_start
   895 ;;   _LT8920_ble_rx_enable->_LT8920_ble_write_reg
   896 ;;   _LT8920_read_ble_fifo->_ble_read_fifo
   897 ;;   _LT8920_ble_rx_start->_LT8920_ble_write_reg
   898 ;;   _LT8920_ble_tx_start->_LT8920_write_ble_fifo
   899 ;;   _LT8920_ble_tx_enable->_LT8920_ble_write_reg
   900 ;;   _ble_read_fifo->_LT_ReadBUF_ble
   901 ;;   _LT8920_write_ble_fifo->_LT_WriteBUF_ble
   902 ;;   _LT8920_ble_write_reg->_LT_WriteReg
   903 ;;   _LT89xx_ModeSet->_LT_WriteReg
   904 ;;   _LT89XX_INIT->_LT_WriteReg
   905 ;;   _get_crc->_roll_data
   906 ;;   _LT_ReadBUF_ble->_SPI_SendByte
   907 ;;   _LT_ReadBUF_ble->_SPI_ReadByte
   908 ;;   _LT_WriteBUF_ble->_SPI_SendByte
   909 ;;   _LT_WriteReg->_SPI_SendByte
   910 ;;   _LT_ReadReg->_SPI_SendByte
   911 ;;   _LT_ReadReg->_SPI_ReadByte
   912 ;;
   913 ;; Critical Paths under _ISR in COMMON
   914 ;;
   915 ;;   None.
   916 ;;
   917 ;; Critical Paths under _main in BANK0
   918 ;;
   919 ;;   _LT8920_ble_rx->_ble_chanel_scan
   920 ;;   _ble_chanel_scan->_LT8920_read_ble_fifo
   921 ;;   _LT8920_ble_tx->_LT8920_ble_tx_start
   922 ;;   _LT8920_read_ble_fifo->_LT8920_ble_to_localdata
   923 ;;   _LT8920_ble_tx_start->_get_crc
   924 ;;
   925 ;; Critical Paths under _ISR in BANK0
   926 ;;
   927 ;;   None.
   928 ;;
   929 ;; Critical Paths under _main in BANK1
   930 ;;
   931 ;;   None.
   932 ;;
   933 ;; Critical Paths under _ISR in BANK1
   934 ;;
   935 ;;   None.
   936 ;;
   937 ;;Main: autosize = 0, tempsize = 0, incstack = 0, save=0
   938 ;;
   939 ;;
   940 ;;Call Graph Tables:
   941 ;;
   942 ;; ---------------------------------------------------------------------------------
   943 ;; (Depth) Function   	        Calls       Base Space   Used Autos Params    Refs
   944 ;; ---------------------------------------------------------------------------------
   945 ;; (0) _main                                                 1     1      0    7200
   946 ;;                               _Init
   947 ;;                        _LT89XX_INIT
   948 ;;                     _LT89xx_ModeSet
   949 ;;                      _LT8920_ble_tx
   950 ;;                      _LT8920_ble_rx
   951 ;; ---------------------------------------------------------------------------------
   952 ;; (1) _LT8920_ble_rx                                        1     1      0    3349
   953 ;;                                              7 BANK0      1     1      0
   954 ;;               _LT8920_ble_rx_enable
   955 ;;                    _ble_chanel_scan
   956 ;; ---------------------------------------------------------------------------------
   957 ;; (2) _ble_chanel_scan                                      2     2      0    2993
   958 ;;                                              5 BANK0      2     2      0
   959 ;;                _LT8920_ble_rx_start
   960 ;;                         _LT_ReadReg
   961 ;;               _LT8920_read_ble_fifo
   962 ;;                          _check_sum
   963 ;;                           _DELAY_MS
   964 ;; ---------------------------------------------------------------------------------
   965 ;; (1) _LT8920_ble_tx                                        0     0      0    2978
   966 ;;               _LT8920_ble_tx_enable
   967 ;;                _LT8920_ble_tx_start
   968 ;;                           _DELAY_MS
   969 ;; ---------------------------------------------------------------------------------
   970 ;; (2) _LT8920_ble_rx_enable                                 0     0      0     288
   971 ;;               _LT8920_ble_write_reg
   972 ;; ---------------------------------------------------------------------------------
   973 ;; (3) _LT8920_read_ble_fifo                                 3     1      2    2023
   974 ;;                                              2 BANK0      3     1      2
   975 ;;               _LT8920_ble_write_reg
   976 ;;                      _ble_read_fifo
   977 ;;            _LT8920_ble_to_localdata
   978 ;; ---------------------------------------------------------------------------------
   979 ;; (3) _LT8920_ble_rx_start                                  1     1      0     381
   980 ;;                                             10 COMMON     1     1      0
   981 ;;               _LT8920_ble_write_reg
   982 ;; ---------------------------------------------------------------------------------
   983 ;; (2) _LT8920_ble_tx_start                                  3     1      2    2643
   984 ;;                                             11 BANK0      3     1      2
   985 ;;                            _get_crc
   986 ;;               _LT8920_pdudata_white
   987 ;;               _LT8920_ble_write_reg
   988 ;;              _LT8920_write_ble_fifo
   989 ;; ---------------------------------------------------------------------------------
   990 ;; (2) _LT8920_ble_tx_enable                                 0     0      0     288
   991 ;;               _LT8920_ble_write_reg
   992 ;; ---------------------------------------------------------------------------------
   993 ;; (4) _ble_read_fifo                                        2     1      1     446
   994 ;;                                             10 COMMON     1     0      1
   995 ;;                                              0 BANK0      1     1      0
   996 ;;                     _LT_ReadBUF_ble
   997 ;; ---------------------------------------------------------------------------------
   998 ;; (3) _LT8920_write_ble_fifo                                2     1      1     356
   999 ;;                                              9 COMMON     2     1      1
  1000 ;;                    _LT_WriteBUF_ble
  1001 ;; ---------------------------------------------------------------------------------
  1002 ;; (4) _LT8920_ble_write_reg                                 3     1      2     288
  1003 ;;                                              7 COMMON     3     1      2
  1004 ;;                        _LT_WriteReg
  1005 ;; ---------------------------------------------------------------------------------
  1006 ;; (1) _LT89xx_ModeSet                                       1     1      0     226
  1007 ;;                                              7 COMMON     1     1      0
  1008 ;;                        _LT_WriteReg
  1009 ;; ---------------------------------------------------------------------------------
  1010 ;; (1) _LT89XX_INIT                                          1     1      0     647
  1011 ;;                                              7 COMMON     1     1      0
  1012 ;;                           _DELAY_MS
  1013 ;;                        _LT_WriteReg
  1014 ;;                         _LT_ReadReg
  1015 ;; ---------------------------------------------------------------------------------
  1016 ;; (3) _get_crc                                             12    11      1    1062
  1017 ;;                                              6 COMMON     1     0      1
  1018 ;;                                              0 BANK0     11    11      0
  1019 ;;                          _roll_data
  1020 ;; ---------------------------------------------------------------------------------
  1021 ;; (5) _LT_ReadBUF_ble                                       6     4      2     384
  1022 ;;                                              4 COMMON     6     4      2
  1023 ;;                       _SPI_SendByte
  1024 ;;                       _SPI_ReadByte
  1025 ;; ---------------------------------------------------------------------------------
  1026 ;; (4) _LT_WriteBUF_ble                                      5     3      2     294
  1027 ;;                                              4 COMMON     5     3      2
  1028 ;;                       _SPI_SendByte
  1029 ;; ---------------------------------------------------------------------------------
  1030 ;; (5) _LT_WriteReg                                          3     1      2     195
  1031 ;;                                              4 COMMON     3     1      2
  1032 ;;                       _SPI_SendByte
  1033 ;; ---------------------------------------------------------------------------------
  1034 ;; (3) _LT_ReadReg                                           1     1      0     244
  1035 ;;                                              4 COMMON     1     1      0
  1036 ;;                       _SPI_SendByte
  1037 ;;                       _SPI_ReadByte
  1038 ;; ---------------------------------------------------------------------------------
  1039 ;; (5) _LT8920_ble_to_localdata                             10     7      3     855
  1040 ;;                                              2 COMMON     8     5      3
  1041 ;;                                              0 BANK0      2     2      0
  1042 ;; ---------------------------------------------------------------------------------
  1043 ;; (4) _LT8920_pdudata_white                                 8     6      2     534
  1044 ;;                                              2 COMMON     8     6      2
  1045 ;; ---------------------------------------------------------------------------------
  1046 ;; (4) _roll_data                                            4     4      0     136
  1047 ;;                                              2 COMMON     4     4      0
  1048 ;; ---------------------------------------------------------------------------------
  1049 ;; (6) _SPI_ReadByte                                         2     2      0     111
  1050 ;;                                              2 COMMON     2     2      0
  1051 ;; ---------------------------------------------------------------------------------
  1052 ;; (6) _SPI_SendByte                                         2     2      0     102
  1053 ;;                                              2 COMMON     2     2      0
  1054 ;; ---------------------------------------------------------------------------------
  1055 ;; (3) _check_sum                                            6     5      1     165
  1056 ;;                                              2 COMMON     6     5      1
  1057 ;; ---------------------------------------------------------------------------------
  1058 ;; (3) _DELAY_MS                                             3     3      0      47
  1059 ;;                                              2 COMMON     3     3      0
  1060 ;; ---------------------------------------------------------------------------------
  1061 ;; (1) _Init                                                 0     0      0       0
  1062 ;; ---------------------------------------------------------------------------------
  1063 ;; Estimated maximum stack depth 6
  1064 ;; ---------------------------------------------------------------------------------
  1065 ;; (Depth) Function   	        Calls       Base Space   Used Autos Params    Refs
  1066 ;; ---------------------------------------------------------------------------------
  1067 ;; (7) _ISR                                                  2     2      0       0
  1068 ;;                                              0 COMMON     2     2      0
  1069 ;; ---------------------------------------------------------------------------------
  1070 ;; Estimated maximum stack depth 7
  1071 ;; ---------------------------------------------------------------------------------
  1072 ;; Call Graph Graphs:
  1073 ;; _main (ROOT)
  1074 ;;   _Init
  1075 ;;   _LT89XX_INIT
  1076 ;;     _DELAY_MS
  1077 ;;     _LT_WriteReg
  1078 ;;       _SPI_SendByte
  1079 ;;     _LT_ReadReg
  1080 ;;       _SPI_SendByte
  1081 ;;       _SPI_ReadByte
  1082 ;;   _LT89xx_ModeSet
  1083 ;;     _LT_WriteReg
  1084 ;;       _SPI_SendByte
  1085 ;;   _LT8920_ble_tx
  1086 ;;     _LT8920_ble_tx_enable
  1087 ;;       _LT8920_ble_write_reg
  1088 ;;         _LT_WriteReg
  1089 ;;           _SPI_SendByte
  1090 ;;     _LT8920_ble_tx_start
  1091 ;;       _get_crc
  1092 ;;         _roll_data
  1093 ;;       _LT8920_pdudata_white
  1094 ;;       _LT8920_ble_write_reg
  1095 ;;         _LT_WriteReg
  1096 ;;           _SPI_SendByte
  1097 ;;       _LT8920_write_ble_fifo
  1098 ;;         _LT_WriteBUF_ble
  1099 ;;           _SPI_SendByte
  1100 ;;     _DELAY_MS
  1101 ;;   _LT8920_ble_rx
  1102 ;;     _LT8920_ble_rx_enable
  1103 ;;       _LT8920_ble_write_reg
  1104 ;;         _LT_WriteReg
  1105 ;;           _SPI_SendByte
  1106 ;;     _ble_chanel_scan
  1107 ;;       _LT8920_ble_rx_start
  1108 ;;         _LT8920_ble_write_reg
  1109 ;;           _LT_WriteReg
  1110 ;;             _SPI_SendByte
  1111 ;;       _LT_ReadReg
  1112 ;;         _SPI_SendByte
  1113 ;;         _SPI_ReadByte
  1114 ;;       _LT8920_read_ble_fifo
  1115 ;;         _LT8920_ble_write_reg
  1116 ;;           _LT_WriteReg
  1117 ;;             _SPI_SendByte
  1118 ;;         _ble_read_fifo
  1119 ;;           _LT_ReadBUF_ble
  1120 ;;             _SPI_SendByte
  1121 ;;             _SPI_ReadByte
  1122 ;;         _LT8920_ble_to_localdata
  1123 ;;       _check_sum
  1124 ;;       _DELAY_MS
  1125 ;;
  1126 ;; _ISR (ROOT)
  1127 ;;
  1128 ;; Address spaces:
  1129 ;;Name               Size   Autos  Total    Cost      Usage
  1130 ;;SFR2                 0      0       0       5        0.0%
  1131 ;;BITSFR2              0      0       0       5        0.0%
  1132 ;;SFR1                 0      0       0       2        0.0%
  1133 ;;BITSFR1              0      0       0       2        0.0%
  1134 ;;BANK1               20      0       0       6        0.0%
  1135 ;;BITBANK1            20      0       0       5        0.0%
  1136 ;;CODE                 0      0       0       0        0.0%
  1137 ;;DATA                 0      0      5D       8        0.0%
  1138 ;;ABS                  0      0      57       7        0.0%
  1139 ;;NULL                 0      0       0       0        0.0%
  1140 ;;STACK                0      0       6       2        0.0%
  1141 ;;BANK0               50      E      4B       4       93.8%
  1142 ;;BITBANK0            50      0       0       3        0.0%
  1143 ;;SFR0                 0      0       0       1        0.0%
  1144 ;;BITSFR0              0      0       0       1        0.0%
  1145 ;;COMMON               E      B       C       1       85.7%
  1146 ;;BITCOMMON            E      0       0       0        0.0%
  1147 ;;EEDATA             100      0       0       0        0.0%
  1148                           
  1149                           
  1150 ;; *************** function _main *****************
  1151 ;; Defined at:
  1152 ;;		line 140 in file "main.c"
  1153 ;; Parameters:    Size  Location     Type
  1154 ;;		None
  1155 ;; Auto vars:     Size  Location     Type
  1156 ;;  I               1    0        unsigned char 
  1157 ;; Return value:  Size  Location     Type
  1158 ;;		None               void
  1159 ;; Registers used:
  1160 ;;		wreg, fsr0l, fsr0h, status,2, status,0, pclath, cstack
  1161 ;; Tracked objects:
  1162 ;;		On entry : 17F/0
  1163 ;;		On exit  : 60/0
  1164 ;;		Unchanged: FFE00/0
  1165 ;; Data sizes:     COMMON   BANK0   BANK1
  1166 ;;      Params:         0       0       0
  1167 ;;      Locals:         0       0       0
  1168 ;;      Temps:          0       0       0
  1169 ;;      Totals:         0       0       0
  1170 ;;Total ram usage:        0 bytes
  1171 ;; Hardware stack levels required when called:    7
  1172 ;; This function calls:
  1173 ;;		_Init
  1174 ;;		_LT89XX_INIT
  1175 ;;		_LT89xx_ModeSet
  1176 ;;		_LT8920_ble_tx
  1177 ;;		_LT8920_ble_rx
  1178 ;; This function is called by:
  1179 ;;		Startup code after reset
  1180 ;; This function uses a non-reentrant model
  1181 ;;
  1182  043A                     _main:	
  1183                           
  1184                           ;main.c: 141: unsigned char I;
  1185                           ;main.c: 142: Init();
  1186                           
  1187                           ; Regs used in _main: [wreg-fsr0h+status,2+status,0+pclath+cstack]
  1188  043A  232A               	fcall	_Init
  1189                           
  1190                           ;main.c: 143: LT89XX_INIT();
  1191  043B  22FD               	fcall	_LT89XX_INIT
  1192                           
  1193                           ;main.c: 144: LT89xx_ModeSet(0x15);
  1194  043C  3015               	movlw	21
  1195  043D  2186               	fcall	_LT89xx_ModeSet
  1196                           
  1197                           ;main.c: 147: LT8920_work_sta = SCAN;
  1198  043E  01A2               	clrf	_LT8920_work_sta
  1199  043F  2C4A               	goto	l5737
  1200  0440                     l5739:	
  1201                           
  1202                           ;main.c: 154: {
  1203                           ;main.c: 156: rxflag = 0;
  1204  0440  01A5               	clrf	_rxflag
  1205                           
  1206                           ;main.c: 158: LT8920_ble_tx();
  1207  0441  2404               	fcall	_LT8920_ble_tx
  1208                           
  1209                           ;main.c: 159: LT8920_ble_rx();
  1210  0442  24E4               	fcall	_LT8920_ble_rx
  1211                           
  1212                           ;main.c: 160: if(rxflag == 1)
  1213  0443  0B25               	decfsz	_rxflag,w
  1214  0444  2C4A               	goto	l5737
  1215                           
  1216                           ;main.c: 161: {
  1217                           ;main.c: 162: rxflag = 0;
  1218  0445  01A5               	clrf	_rxflag
  1219                           
  1220                           ;main.c: 163: rxtimeout = 0;
  1221  0446  01A0               	clrf	_rxtimeout
  1222  0447  01A1               	clrf	_rxtimeout+1
  1223                           
  1224                           ;main.c: 164: LT8920_work_sta = RXBLE;
  1225  0448  01A2               	clrf	_LT8920_work_sta
  1226  0449  0AA2               	incf	_LT8920_work_sta,f
  1227  044A                     l5737:	
  1228                           
  1229                           ;main.c: 150: {
  1230                           ;main.c: 153: if(LT8920_work_sta == SCAN)
  1231  044A  08A2               	movf	_LT8920_work_sta,f
  1232  044B  1903               	btfsc	3,2
  1233  044C  2C40               	goto	l5739
  1234                           
  1235                           ;main.c: 169: else if(LT8920_work_sta == RXBLE)
  1236  044D  0322               	decf	_LT8920_work_sta,w
  1237  044E  1D03               	skipz
  1238  044F  2C4A               	goto	l5737
  1239                           
  1240                           ;main.c: 170: {
  1241                           ;main.c: 172: LT8920_ble_rx();
  1242  0450  24E4               	fcall	_LT8920_ble_rx
  1243  0451  2C4A               	goto	l5737
  1244  0452                     __end_of_main:	
  1245                           
  1246                           	psect	text791
  1247  04E4                     __ptext791:	
  1248 ;; =============== function _main ends ============
  1249                           
  1250                           
  1251 ;; *************** function _LT8920_ble_rx *****************
  1252 ;; Defined at:
  1253 ;;		line 272 in file "main.c"
  1254 ;; Parameters:    Size  Location     Type
  1255 ;;		None
  1256 ;; Auto vars:     Size  Location     Type
  1257 ;;  i               1    7[BANK0 ] unsigned char 
  1258 ;; Return value:  Size  Location     Type
  1259 ;;		None               void
  1260 ;; Registers used:
  1261 ;;		wreg, fsr0l, fsr0h, status,2, status,0, pclath, cstack
  1262 ;; Tracked objects:
  1263 ;;		On entry : 60/0
  1264 ;;		On exit  : 60/0
  1265 ;;		Unchanged: FFE00/0
  1266 ;; Data sizes:     COMMON   BANK0   BANK1
  1267 ;;      Params:         0       0       0
  1268 ;;      Locals:         0       1       0
  1269 ;;      Temps:          0       0       0
  1270 ;;      Totals:         0       1       0
  1271 ;;Total ram usage:        1 bytes
  1272 ;; Hardware stack levels used:    1
  1273 ;; Hardware stack levels required when called:    6
  1274 ;; This function calls:
  1275 ;;		_LT8920_ble_rx_enable
  1276 ;;		_ble_chanel_scan
  1277 ;; This function is called by:
  1278 ;;		_main
  1279 ;; This function uses a non-reentrant model
  1280 ;;
  1281  04E4                     _LT8920_ble_rx:	
  1282                           
  1283                           ;main.c: 274: unsigned char i;
  1284                           ;main.c: 276: LT8920_ble_rx_enable();
  1285                           
  1286                           ; Regs used in _LT8920_ble_rx: [wreg-fsr0h+status,2+status,0+pclath+cstack]
  1287  04E4  24A2               	fcall	_LT8920_ble_rx_enable
  1288                           
  1289                           ;main.c: 278: for(i = 0; i < 5; i++)
  1290  04E5  01E4               	clrf	LT8920_ble_rx@i
  1291  04E6                     l5723:	
  1292                           
  1293                           ;main.c: 279: {
  1294                           ;main.c: 280: ble_chanel_scan(37);
  1295  04E6  3025               	movlw	37
  1296  04E7  21D2               	fcall	_ble_chanel_scan
  1297                           
  1298                           ;main.c: 281: ble_chanel_scan(38);
  1299  04E8  3026               	movlw	38
  1300  04E9  21D2               	fcall	_ble_chanel_scan
  1301                           
  1302                           ;main.c: 282: ble_chanel_scan(39);
  1303  04EA  3027               	movlw	39
  1304  04EB  21D2               	fcall	_ble_chanel_scan
  1305  04EC  3005               	movlw	5
  1306  04ED  0AE4               	incf	LT8920_ble_rx@i,f
  1307  04EE  0264               	subwf	LT8920_ble_rx@i,w
  1308  04EF  1803               	btfsc	3,0
  1309  04F0  0008               	return
  1310  04F1  2CE6               	goto	l5723
  1311  04F2                     __end_of_LT8920_ble_rx:	
  1312                           
  1313                           	psect	text792
  1314  01D2                     __ptext792:	
  1315 ;; =============== function _LT8920_ble_rx ends ============
  1316                           
  1317                           
  1318 ;; *************** function _ble_chanel_scan *****************
  1319 ;; Defined at:
  1320 ;;		line 206 in file "main.c"
  1321 ;; Parameters:    Size  Location     Type
  1322 ;;  chanel          1    wreg     unsigned char 
  1323 ;; Auto vars:     Size  Location     Type
  1324 ;;  chanel          1    5[BANK0 ] unsigned char 
  1325 ;;  i               1    6[BANK0 ] unsigned char 
  1326 ;; Return value:  Size  Location     Type
  1327 ;;		None               void
  1328 ;; Registers used:
  1329 ;;		wreg, fsr0l, fsr0h, status,2, status,0, pclath, cstack
  1330 ;; Tracked objects:
  1331 ;;		On entry : 60/0
  1332 ;;		On exit  : 60/0
  1333 ;;		Unchanged: FFE00/0
  1334 ;; Data sizes:     COMMON   BANK0   BANK1
  1335 ;;      Params:         0       0       0
  1336 ;;      Locals:         0       2       0
  1337 ;;      Temps:          0       0       0
  1338 ;;      Totals:         0       2       0
  1339 ;;Total ram usage:        2 bytes
  1340 ;; Hardware stack levels used:    1
  1341 ;; Hardware stack levels required when called:    5
  1342 ;; This function calls:
  1343 ;;		_LT8920_ble_rx_start
  1344 ;;		_LT_ReadReg
  1345 ;;		_LT8920_read_ble_fifo
  1346 ;;		_check_sum
  1347 ;;		_DELAY_MS
  1348 ;; This function is called by:
  1349 ;;		_LT8920_ble_rx
  1350 ;; This function uses a non-reentrant model
  1351 ;;
  1352  01D2                     _ble_chanel_scan:	
  1353                           
  1354                           ; Regs used in _ble_chanel_scan: [wreg-fsr0h+status,2+status,0+pclath+cstack]
  1355                           ;ble_chanel_scan@chanel stored from wreg
  1356  01D2  00E2               	movwf	ble_chanel_scan@chanel
  1357                           
  1358                           ;main.c: 207: unsigned char i;
  1359                           ;main.c: 209: LT8920_ble_rx_start(chanel);
  1360  01D3  22CC               	fcall	_LT8920_ble_rx_start
  1361                           
  1362                           ;main.c: 212: for(i = 0; i < 8; i++)
  1363  01D4  01E3               	clrf	ble_chanel_scan@i
  1364  01D5                     l5677:	
  1365                           
  1366                           ;main.c: 213: {
  1367                           ;main.c: 214: LT_ReadReg(48);
  1368  01D5  3030               	movlw	48
  1369  01D6  2509               	fcall	_LT_ReadReg
  1370                           
  1371                           ;main.c: 216: if(RegL&0X40){
  1372  01D7  1F23               	btfss	_RegL,6
  1373  01D8  2A13               	goto	l5709
  1374                           
  1375                           ;main.c: 218: LT8920_read_ble_fifo(chanel, RXADVDATA,29);
  1376  01D9  3026               	movlw	_RXADVDATA& (0+255)
  1377  01DA  00DF               	movwf	?_LT8920_read_ble_fifo
  1378  01DB  301D               	movlw	29
  1379  01DC  00E0               	movwf	?_LT8920_read_ble_fifo+1
  1380  01DD  0862               	movf	ble_chanel_scan@chanel,w
  1381  01DE  237B               	fcall	_LT8920_read_ble_fifo
  1382                           
  1383                           ;main.c: 220: if((RXADVDATA[17]==0x11)&&(RXADVDATA[18]==0x11)&&(RXADVDATA[19]==0x11)){
  1384  01DF  0837               	movf	_RXADVDATA+17,w
  1385  01E0  3A11               	xorlw	17
  1386  01E1  1D03               	skipz
  1387  01E2  2A15               	goto	l5711
  1388  01E3  0838               	movf	_RXADVDATA+18,w
  1389  01E4  3A11               	xorlw	17
  1390  01E5  1D03               	skipz
  1391  01E6  2A15               	goto	l5711
  1392  01E7  0839               	movf	_RXADVDATA+19,w
  1393  01E8  3A11               	xorlw	17
  1394  01E9  1D03               	skipz
  1395  01EA  2A15               	goto	l5711
  1396                           
  1397                           ;main.c: 223: if(check_sum(RXADVDATA+17, 10) == 1)
  1398  01EB  300A               	movlw	10
  1399  01EC  00F2               	movwf	?_check_sum
  1400  01ED  3037               	movlw	(_RXADVDATA+17)& (0+255)
  1401  01EE  2354               	fcall	_check_sum
  1402  01EF  3A01               	xorlw	1
  1403  01F0  1D03               	skipz
  1404  01F1  2A0A               	goto	l1132
  1405                           
  1406                           ;main.c: 226: {
  1407                           ;main.c: 229: if(RXADVDATA[5+17] == 0x02)
  1408  01F2  1283               	bcf	3,5	;RP0=0, select bank0
  1409  01F3  1303               	bcf	3,6	;RP1=0, select bank0
  1410  01F4  083C               	movf	_RXADVDATA+22,w
  1411  01F5  3A02               	xorlw	2
  1412  01F6  1D03               	skipz
  1413  01F7  29FA               	goto	l5695
  1414                           
  1415                           ;main.c: 230: {
  1416                           ;main.c: 231: RC5 = 1;
  1417  01F8  1687               	bsf	7,5
  1418                           
  1419                           ;main.c: 233: }
  1420  01F9  2A08               	goto	l1134
  1421  01FA                     l5695:	
  1422                           
  1423                           ;main.c: 234: else if(RXADVDATA[5+17] == 0x01)
  1424  01FA  0B3C               	decfsz	_RXADVDATA+22,w
  1425  01FB  29FE               	goto	l5699
  1426                           
  1427                           ;main.c: 235: {
  1428                           ;main.c: 236: RC5 = 0;
  1429  01FC  1287               	bcf	7,5
  1430                           
  1431                           ;main.c: 238: }
  1432  01FD  2A08               	goto	l1134
  1433  01FE                     l5699:	
  1434                           
  1435                           ;main.c: 239: else if(RXADVDATA[5+17] == 0x04)
  1436  01FE  083C               	movf	_RXADVDATA+22,w
  1437  01FF  3A04               	xorlw	4
  1438  0200  1D03               	skipz
  1439  0201  2A08               	goto	l1134
  1440                           
  1441                           ;main.c: 240: {
  1442                           ;main.c: 242: if( ledsta != RXADVDATA[6+17])
  1443  0202  083D               	movf	_RXADVDATA+23,w
  1444  0203  0624               	xorwf	_ledsta,w
  1445  0204  1903               	skipnz
  1446  0205  2A08               	goto	l1134
  1447                           
  1448                           ;main.c: 243: {
  1449                           ;main.c: 244: RC5 = !RC5;
  1450  0206  3020               	movlw	32
  1451  0207  0687               	xorwf	7,f
  1452  0208                     l1134:	
  1453                           
  1454                           ;main.c: 245: }
  1455                           ;main.c: 246: }
  1456                           ;main.c: 247: ledsta = RXADVDATA[6+17];
  1457  0208  083D               	movf	_RXADVDATA+23,w
  1458  0209  00A4               	movwf	_ledsta
  1459  020A                     l1132:	
  1460                           
  1461                           ;main.c: 251: }
  1462                           ;main.c: 253: i = 9;
  1463  020A  3009               	movlw	9
  1464  020B  1283               	bcf	3,5	;RP0=0, select bank0
  1465  020C  1303               	bcf	3,6	;RP1=0, select bank0
  1466  020D  00E3               	movwf	ble_chanel_scan@i
  1467                           
  1468                           ;main.c: 255: rxflag = 1;
  1469  020E  01A5               	clrf	_rxflag
  1470  020F  0AA5               	incf	_rxflag,f
  1471                           
  1472                           ;main.c: 256: rxtimeout = 0;
  1473  0210  01A0               	clrf	_rxtimeout
  1474  0211  01A1               	clrf	_rxtimeout+1
  1475  0212  2A15               	goto	l5711
  1476  0213                     l5709:	
  1477                           
  1478                           ;main.c: 259: else
  1479                           ;main.c: 260: {
  1480                           ;main.c: 261: DELAY_MS(1);
  1481  0213  3001               	movlw	1
  1482  0214  247B               	fcall	_DELAY_MS
  1483  0215                     l5711:	
  1484  0215  3008               	movlw	8
  1485  0216  0AE3               	incf	ble_chanel_scan@i,f
  1486  0217  0263               	subwf	ble_chanel_scan@i,w
  1487  0218  1803               	btfsc	3,0
  1488  0219  0008               	return
  1489  021A  29D5               	goto	l5677
  1490  021B                     __end_of_ble_chanel_scan:	
  1491                           
  1492                           	psect	text793
  1493  0404                     __ptext793:	
  1494 ;; =============== function _ble_chanel_scan ends ============
  1495                           
  1496                           
  1497 ;; *************** function _LT8920_ble_tx *****************
  1498 ;; Defined at:
  1499 ;;		line 191 in file "main.c"
  1500 ;; Parameters:    Size  Location     Type
  1501 ;;		None
  1502 ;; Auto vars:     Size  Location     Type
  1503 ;;		None
  1504 ;; Return value:  Size  Location     Type
  1505 ;;		None               void
  1506 ;; Registers used:
  1507 ;;		wreg, fsr0l, fsr0h, status,2, status,0, pclath, cstack
  1508 ;; Tracked objects:
  1509 ;;		On entry : 60/0
  1510 ;;		On exit  : 60/0
  1511 ;;		Unchanged: FFE00/0
  1512 ;; Data sizes:     COMMON   BANK0   BANK1
  1513 ;;      Params:         0       0       0
  1514 ;;      Locals:         0       0       0
  1515 ;;      Temps:          0       0       0
  1516 ;;      Totals:         0       0       0
  1517 ;;Total ram usage:        0 bytes
  1518 ;; Hardware stack levels used:    1
  1519 ;; Hardware stack levels required when called:    5
  1520 ;; This function calls:
  1521 ;;		_LT8920_ble_tx_enable
  1522 ;;		_LT8920_ble_tx_start
  1523 ;;		_DELAY_MS
  1524 ;; This function is called by:
  1525 ;;		_main
  1526 ;; This function uses a non-reentrant model
  1527 ;;
  1528  0404                     _LT8920_ble_tx:	
  1529                           
  1530                           ;main.c: 193: LT8920_ble_tx_enable();
  1531                           
  1532                           ; Regs used in _LT8920_ble_tx: [wreg-fsr0h+status,2+status,0+pclath+cstack]
  1533  0404  24C5               	fcall	_LT8920_ble_tx_enable
  1534                           
  1535                           ;main.c: 194: LT8920_ble_tx_start(37, PDUDATA, 26);
  1536  0405  3043               	movlw	_PDUDATA& (0+255)
  1537  0406  00E8               	movwf	?_LT8920_ble_tx_start
  1538  0407  301A               	movlw	26
  1539  0408  00E9               	movwf	?_LT8920_ble_tx_start+1
  1540  0409  3025               	movlw	37
  1541  040A  229A               	fcall	_LT8920_ble_tx_start
  1542                           
  1543                           ;main.c: 195: DELAY_MS(4);
  1544  040B  3004               	movlw	4
  1545  040C  247B               	fcall	_DELAY_MS
  1546                           
  1547                           ;main.c: 196: LT8920_ble_tx_start(38, PDUDATA, 26);
  1548  040D  3043               	movlw	_PDUDATA& (0+255)
  1549  040E  00E8               	movwf	?_LT8920_ble_tx_start
  1550  040F  301A               	movlw	26
  1551  0410  00E9               	movwf	?_LT8920_ble_tx_start+1
  1552  0411  3026               	movlw	38
  1553  0412  229A               	fcall	_LT8920_ble_tx_start
  1554                           
  1555                           ;main.c: 197: DELAY_MS(4);
  1556  0413  3004               	movlw	4
  1557  0414  247B               	fcall	_DELAY_MS
  1558                           
  1559                           ;main.c: 198: LT8920_ble_tx_start(39, PDUDATA, 26);
  1560  0415  3043               	movlw	_PDUDATA& (0+255)
  1561  0416  00E8               	movwf	?_LT8920_ble_tx_start
  1562  0417  301A               	movlw	26
  1563  0418  00E9               	movwf	?_LT8920_ble_tx_start+1
  1564  0419  3027               	movlw	39
  1565  041A  229A               	fcall	_LT8920_ble_tx_start
  1566                           
  1567                           ;main.c: 199: DELAY_MS(4);
  1568  041B  3004               	movlw	4
  1569  041C  247B               	fcall	_DELAY_MS
  1570                           
  1571                           ;main.c: 200: RC4 = !RC4;
  1572  041D  3010               	movlw	16
  1573  041E  0687               	xorwf	7,f
  1574  041F  0008               	return
  1575  0420                     __end_of_LT8920_ble_tx:	
  1576                           
  1577                           	psect	text794
  1578  04A2                     __ptext794:	
  1579 ;; =============== function _LT8920_ble_tx ends ============
  1580                           
  1581                           
  1582 ;; *************** function _LT8920_ble_rx_enable *****************
  1583 ;; Defined at:
  1584 ;;		line 205 in file "rx_ble.c"
  1585 ;; Parameters:    Size  Location     Type
  1586 ;;		None
  1587 ;; Auto vars:     Size  Location     Type
  1588 ;;		None
  1589 ;; Return value:  Size  Location     Type
  1590 ;;		None               void
  1591 ;; Registers used:
  1592 ;;		wreg, status,2, status,0, pclath, cstack
  1593 ;; Tracked objects:
  1594 ;;		On entry : 60/0
  1595 ;;		On exit  : 60/0
  1596 ;;		Unchanged: FFF9F/0
  1597 ;; Data sizes:     COMMON   BANK0   BANK1
  1598 ;;      Params:         0       0       0
  1599 ;;      Locals:         0       0       0
  1600 ;;      Temps:          0       0       0
  1601 ;;      Totals:         0       0       0
  1602 ;;Total ram usage:        0 bytes
  1603 ;; Hardware stack levels used:    1
  1604 ;; Hardware stack levels required when called:    4
  1605 ;; This function calls:
  1606 ;;		_LT8920_ble_write_reg
  1607 ;; This function is called by:
  1608 ;;		_LT8920_ble_rx
  1609 ;; This function uses a non-reentrant model
  1610 ;;
  1611  04A2                     _LT8920_ble_rx_enable:	
  1612                           
  1613                           ;rx_ble.c: 207: LT8920_ble_write_reg(32, 0x4A, 0x08);
  1614                           
  1615                           ; Regs used in _LT8920_ble_rx_enable: [wreg+status,2+status,0+pclath+cstack]
  1616  04A2  304A               	movlw	74
  1617  04A3  00F7               	movwf	?_LT8920_ble_write_reg
  1618  04A4  3008               	movlw	8
  1619  04A5  00F8               	movwf	?_LT8920_ble_write_reg+1
  1620  04A6  3020               	movlw	32
  1621  04A7  251B               	fcall	_LT8920_ble_write_reg
  1622                           
  1623                           ;rx_ble.c: 208: LT8920_ble_write_reg(36, 0xbe, 0xd6);
  1624  04A8  30BE               	movlw	190
  1625  04A9  00F7               	movwf	?_LT8920_ble_write_reg
  1626  04AA  30D6               	movlw	214
  1627  04AB  00F8               	movwf	?_LT8920_ble_write_reg+1
  1628  04AC  3024               	movlw	36
  1629  04AD  251B               	fcall	_LT8920_ble_write_reg
  1630                           
  1631                           ;rx_ble.c: 209: LT8920_ble_write_reg(39, 0x8e, 0x89);
  1632  04AE  308E               	movlw	142
  1633  04AF  00F7               	movwf	?_LT8920_ble_write_reg
  1634  04B0  3089               	movlw	137
  1635  04B1  00F8               	movwf	?_LT8920_ble_write_reg+1
  1636  04B2  3027               	movlw	39
  1637  04B3  2D1B               	ljmp	_LT8920_ble_write_reg
  1638  04B4                     __end_of_LT8920_ble_rx_enable:	
  1639                           
  1640                           	psect	text795
  1641  037B                     __ptext795:	
  1642 ;; =============== function _LT8920_ble_rx_enable ends ============
  1643                           
  1644                           
  1645 ;; *************** function _LT8920_read_ble_fifo *****************
  1646 ;; Defined at:
  1647 ;;		line 247 in file "rx_ble.c"
  1648 ;; Parameters:    Size  Location     Type
  1649 ;;  chanel          1    wreg     unsigned char 
  1650 ;;  RXADVDATA       1    2[BANK0 ] PTR unsigned char 
  1651 ;;		 -> RXADVDATA(29), 
  1652 ;;  len             1    3[BANK0 ] unsigned char 
  1653 ;; Auto vars:     Size  Location     Type
  1654 ;;  chanel          1    4[BANK0 ] unsigned char 
  1655 ;; Return value:  Size  Location     Type
  1656 ;;		None               void
  1657 ;; Registers used:
  1658 ;;		wreg, fsr0l, fsr0h, status,2, status,0, pclath, cstack
  1659 ;; Tracked objects:
  1660 ;;		On entry : 60/0
  1661 ;;		On exit  : 60/0
  1662 ;;		Unchanged: FFE9F/0
  1663 ;; Data sizes:     COMMON   BANK0   BANK1
  1664 ;;      Params:         0       2       0
  1665 ;;      Locals:         0       1       0
  1666 ;;      Temps:          0       0       0
  1667 ;;      Totals:         0       3       0
  1668 ;;Total ram usage:        3 bytes
  1669 ;; Hardware stack levels used:    1
  1670 ;; Hardware stack levels required when called:    4
  1671 ;; This function calls:
  1672 ;;		_LT8920_ble_write_reg
  1673 ;;		_ble_read_fifo
  1674 ;;		_LT8920_ble_to_localdata
  1675 ;; This function is called by:
  1676 ;;		_ble_chanel_scan
  1677 ;; This function uses a non-reentrant model
  1678 ;;
  1679  037B                     _LT8920_read_ble_fifo:	
  1680                           
  1681                           ; Regs used in _LT8920_read_ble_fifo: [wreg-fsr0h+status,2+status,0+pclath+cstack]
  1682                           ;LT8920_read_ble_fifo@chanel stored from wreg
  1683  037B  00E1               	movwf	LT8920_read_ble_fifo@chanel
  1684  037C  3007               	movlw	7
  1685                           
  1686                           ;rx_ble.c: 249: LT8920_ble_write_reg(7, 0x00, 0x00);
  1687  037D  01F7               	clrf	?_LT8920_ble_write_reg
  1688  037E  01F8               	clrf	?_LT8920_ble_write_reg+1
  1689  037F  251B               	fcall	_LT8920_ble_write_reg
  1690                           
  1691                           ;rx_ble.c: 250: ble_read_fifo(RXADVDATA,len);
  1692  0380  0860               	movf	LT8920_read_ble_fifo@len,w
  1693  0381  00FA               	movwf	?_ble_read_fifo
  1694  0382  085F               	movf	LT8920_read_ble_fifo@RXADVDATA,w
  1695  0383  2522               	fcall	_ble_read_fifo
  1696                           
  1697                           ;rx_ble.c: 251: if(chanel == 37)
  1698  0384  0861               	movf	LT8920_read_ble_fifo@chanel,w
  1699  0385  3A25               	xorlw	37
  1700  0386  1D03               	skipz
  1701  0387  2B8B               	goto	l5647
  1702                           
  1703                           ;rx_ble.c: 252: {
  1704                           ;rx_ble.c: 253: LT8920_ble_to_localdata(chanel, RXADVDATA, len, 2);
  1705  0388  085F               	movf	LT8920_read_ble_fifo@RXADVDATA,w
  1706  0389  2399               	fcall	PL5	;call to abstracted procedure
  1707  038A  2A1B               	ljmp	_LT8920_ble_to_localdata
  1708  038B                     l5647:	
  1709                           ;rx_ble.c: 255: }
  1710                           
  1711                           
  1712                           ;rx_ble.c: 256: else if(chanel == 38)
  1713  038B  0861               	movf	LT8920_read_ble_fifo@chanel,w
  1714  038C  3A26               	xorlw	38
  1715  038D  1D03               	skipz
  1716  038E  2B92               	goto	l5651
  1717                           
  1718                           ;rx_ble.c: 257: {
  1719                           ;rx_ble.c: 258: LT8920_ble_to_localdata(chanel, RXADVDATA, len, 2);
  1720  038F  085F               	movf	LT8920_read_ble_fifo@RXADVDATA,w
  1721  0390  2399               	fcall	PL5	;call to abstracted procedure
  1722  0391  2A1B               	ljmp	_LT8920_ble_to_localdata
  1723  0392                     l5651:	
  1724                           ;rx_ble.c: 259: }
  1725                           
  1726                           
  1727                           ;rx_ble.c: 260: else if(chanel == 39)
  1728  0392  0861               	movf	LT8920_read_ble_fifo@chanel,w
  1729  0393  3A27               	xorlw	39
  1730  0394  1D03               	skipz
  1731  0395  0008               	return
  1732                           
  1733                           ;rx_ble.c: 261: {
  1734                           ;rx_ble.c: 262: LT8920_ble_to_localdata(chanel, RXADVDATA, len, 2);
  1735  0396  085F               	movf	LT8920_read_ble_fifo@RXADVDATA,w
  1736  0397  2399               	fcall	PL5	;call to abstracted procedure
  1737  0398  2A1B               	ljmp	_LT8920_ble_to_localdata
  1738  0399                     __end_of_LT8920_read_ble_fifo:	
  1739  0399                     PL5:	
  1740  0399  00F2               	movwf	?_LT8920_ble_to_localdata
  1741  039A  0860               	movf	LT8920_read_ble_fifo@len,w
  1742  039B  00F3               	movwf	?_LT8920_ble_to_localdata+1
  1743  039C  3002               	movlw	2
  1744  039D  00F4               	movwf	?_LT8920_ble_to_localdata+2
  1745  039E  0861               	movf	LT8920_read_ble_fifo@chanel,w
  1746  039F  0008               	return
  1747                           
  1748                           	psect	text796
  1749  02CC                     __ptext796:	
  1750 ;; =============== function _LT8920_read_ble_fifo ends ============
  1751                           
  1752                           
  1753 ;; *************** function _LT8920_ble_rx_start *****************
  1754 ;; Defined at:
  1755 ;;		line 214 in file "rx_ble.c"
  1756 ;; Parameters:    Size  Location     Type
  1757 ;;  chanel          1    wreg     unsigned char 
  1758 ;; Auto vars:     Size  Location     Type
  1759 ;;  chanel          1   10[COMMON] unsigned char 
  1760 ;; Return value:  Size  Location     Type
  1761 ;;		None               void
  1762 ;; Registers used:
  1763 ;;		wreg, status,2, status,0, pclath, cstack
  1764 ;; Tracked objects:
  1765 ;;		On entry : 60/0
  1766 ;;		On exit  : 60/0
  1767 ;;		Unchanged: FFF9F/0
  1768 ;; Data sizes:     COMMON   BANK0   BANK1
  1769 ;;      Params:         0       0       0
  1770 ;;      Locals:         1       0       0
  1771 ;;      Temps:          0       0       0
  1772 ;;      Totals:         1       0       0
  1773 ;;Total ram usage:        1 bytes
  1774 ;; Hardware stack levels used:    1
  1775 ;; Hardware stack levels required when called:    4
  1776 ;; This function calls:
  1777 ;;		_LT8920_ble_write_reg
  1778 ;; This function is called by:
  1779 ;;		_ble_chanel_scan
  1780 ;; This function uses a non-reentrant model
  1781 ;;
  1782  02CC                     _LT8920_ble_rx_start:	
  1783                           
  1784                           ; Regs used in _LT8920_ble_rx_start: [wreg+status,2+status,0+pclath+cstack]
  1785                           ;LT8920_ble_rx_start@chanel stored from wreg
  1786  02CC  00FA               	movwf	LT8920_ble_rx_start@chanel
  1787                           
  1788                           ;rx_ble.c: 216: if(chanel == 37)
  1789  02CD  3A25               	xorlw	37
  1790  02CE  1D03               	skipz
  1791  02CF  2ADB               	goto	l5631
  1792  02D0  3007               	movlw	7
  1793                           
  1794                           ;rx_ble.c: 217: {
  1795                           ;rx_ble.c: 220: LT8920_ble_write_reg(7, 0, 0);
  1796  02D1  01F7               	clrf	?_LT8920_ble_write_reg
  1797  02D2  01F8               	clrf	?_LT8920_ble_write_reg+1
  1798  02D3  251B               	fcall	_LT8920_ble_write_reg
  1799                           
  1800                           ;rx_ble.c: 221: LT8920_ble_write_reg(52, 0x80, 0x80);
  1801  02D4  22F9               	fcall	PL8	;call to abstracted procedure
  1802  02D5  251B               	fcall	_LT8920_ble_write_reg
  1803  02D6  3080               	movlw	128
  1804                           
  1805                           ;rx_ble.c: 222: LT8920_ble_write_reg(7, 0, 0 | 0X80);
  1806  02D7  01F7               	clrf	?_LT8920_ble_write_reg
  1807  02D8  00F8               	movwf	?_LT8920_ble_write_reg+1
  1808  02D9  3007               	movlw	7
  1809  02DA  2D1B               	ljmp	_LT8920_ble_write_reg
  1810  02DB                     l5631:	
  1811                           ;rx_ble.c: 223: }
  1812                           
  1813                           
  1814                           ;rx_ble.c: 224: else if(chanel == 38)
  1815  02DB  087A               	movf	LT8920_ble_rx_start@chanel,w
  1816  02DC  3A26               	xorlw	38
  1817  02DD  1D03               	skipz
  1818  02DE  2AEA               	goto	l5635
  1819  02DF  3007               	movlw	7
  1820                           
  1821                           ;rx_ble.c: 225: {
  1822                           ;rx_ble.c: 228: LT8920_ble_write_reg(7, 0, 0);
  1823  02E0  01F7               	clrf	?_LT8920_ble_write_reg
  1824  02E1  01F8               	clrf	?_LT8920_ble_write_reg+1
  1825  02E2  251B               	fcall	_LT8920_ble_write_reg
  1826                           
  1827                           ;rx_ble.c: 230: LT8920_ble_write_reg(52, 0x80, 0x80);
  1828  02E3  22F9               	fcall	PL8	;call to abstracted procedure
  1829  02E4  251B               	fcall	_LT8920_ble_write_reg
  1830  02E5  3098               	movlw	152
  1831                           
  1832                           ;rx_ble.c: 231: LT8920_ble_write_reg(7, 0, 24 | 0X80);
  1833  02E6  01F7               	clrf	?_LT8920_ble_write_reg
  1834  02E7  00F8               	movwf	?_LT8920_ble_write_reg+1
  1835  02E8  3007               	movlw	7
  1836  02E9  2D1B               	ljmp	_LT8920_ble_write_reg
  1837  02EA                     l5635:	
  1838                           ;rx_ble.c: 233: }
  1839                           
  1840                           
  1841                           ;rx_ble.c: 234: else if(chanel == 39)
  1842  02EA  087A               	movf	LT8920_ble_rx_start@chanel,w
  1843  02EB  3A27               	xorlw	39
  1844  02EC  1D03               	skipz
  1845  02ED  0008               	return
  1846  02EE  3007               	movlw	7
  1847                           
  1848                           ;rx_ble.c: 235: {
  1849                           ;rx_ble.c: 237: LT8920_ble_write_reg(7, 0, 0);
  1850  02EF  01F7               	clrf	?_LT8920_ble_write_reg
  1851  02F0  01F8               	clrf	?_LT8920_ble_write_reg+1
  1852  02F1  251B               	fcall	_LT8920_ble_write_reg
  1853                           
  1854                           ;rx_ble.c: 238: LT8920_ble_write_reg(52, 0x80, 0x80);
  1855  02F2  22F9               	fcall	PL8	;call to abstracted procedure
  1856  02F3  251B               	fcall	_LT8920_ble_write_reg
  1857  02F4  30CE               	movlw	206
  1858                           
  1859                           ;rx_ble.c: 239: LT8920_ble_write_reg(7, 0, 78 | 0X80);
  1860  02F5  01F7               	clrf	?_LT8920_ble_write_reg
  1861  02F6  00F8               	movwf	?_LT8920_ble_write_reg+1
  1862  02F7  3007               	movlw	7
  1863  02F8  2D1B               	ljmp	_LT8920_ble_write_reg
  1864  02F9                     __end_of_LT8920_ble_rx_start:	
  1865  02F9                     PL8:	
  1866  02F9  3080               	movlw	128
  1867  02FA  00F7               	movwf	?_LT8920_ble_write_reg
  1868  02FB  00F8               	movwf	?_LT8920_ble_write_reg+1
  1869  02FC  3434               	retlw	52
  1870                           
  1871                           	psect	text797
  1872  029A                     __ptext797:	
  1873 ;; =============== function _LT8920_ble_rx_start ends ============
  1874                           
  1875                           
  1876 ;; *************** function _LT8920_ble_tx_start *****************
  1877 ;; Defined at:
  1878 ;;		line 178 in file "rx_ble.c"
  1879 ;; Parameters:    Size  Location     Type
  1880 ;;  chanel          1    wreg     unsigned char 
  1881 ;;  PDUDATA         1   11[BANK0 ] PTR unsigned char 
  1882 ;;		 -> PDUDATA(26), 
  1883 ;;  len             1   12[BANK0 ] unsigned char 
  1884 ;; Auto vars:     Size  Location     Type
  1885 ;;  chanel          1   13[BANK0 ] unsigned char 
  1886 ;; Return value:  Size  Location     Type
  1887 ;;		None               void
  1888 ;; Registers used:
  1889 ;;		wreg, fsr0l, fsr0h, status,2, status,0, pclath, cstack
  1890 ;; Tracked objects:
  1891 ;;		On entry : 60/0
  1892 ;;		On exit  : 60/0
  1893 ;;		Unchanged: FFE00/0
  1894 ;; Data sizes:     COMMON   BANK0   BANK1
  1895 ;;      Params:         0       2       0
  1896 ;;      Locals:         0       1       0
  1897 ;;      Temps:          0       0       0
  1898 ;;      Totals:         0       3       0
  1899 ;;Total ram usage:        3 bytes
  1900 ;; Hardware stack levels used:    1
  1901 ;; Hardware stack levels required when called:    4
  1902 ;; This function calls:
  1903 ;;		_get_crc
  1904 ;;		_LT8920_pdudata_white
  1905 ;;		_LT8920_ble_write_reg
  1906 ;;		_LT8920_write_ble_fifo
  1907 ;; This function is called by:
  1908 ;;		_LT8920_ble_tx
  1909 ;; This function uses a non-reentrant model
  1910 ;;
  1911  029A                     _LT8920_ble_tx_start:	
  1912                           
  1913                           ; Regs used in _LT8920_ble_tx_start: [wreg-fsr0h+status,2+status,0+pclath+cstack]
  1914                           ;LT8920_ble_tx_start@chanel stored from wreg
  1915  029A  00EA               	movwf	LT8920_ble_tx_start@chanel
  1916                           
  1917                           ;rx_ble.c: 179: get_crc(PDUDATA, len);
  1918  029B  0869               	movf	LT8920_ble_tx_start@len,w
  1919  029C  00F6               	movwf	?_get_crc
  1920  029D  0868               	movf	LT8920_ble_tx_start@PDUDATA,w
  1921  029E  20EC               	fcall	_get_crc
  1922                           
  1923                           ;rx_ble.c: 180: LT8920_pdudata_white(chanel, PDUDATA, len);
  1924  029F  22C6               	fcall	PL7	;call to abstracted procedure
  1925  02A0  225C               	fcall	_LT8920_pdudata_white
  1926  02A1  3007               	movlw	7
  1927                           
  1928                           ;rx_ble.c: 182: LT8920_ble_write_reg(7, 0x00, 0x00);
  1929  02A2  01F7               	clrf	?_LT8920_ble_write_reg
  1930  02A3  01F8               	clrf	?_LT8920_ble_write_reg+1
  1931  02A4  251B               	fcall	_LT8920_ble_write_reg
  1932                           
  1933                           ;rx_ble.c: 183: LT8920_ble_write_reg(52, 0x80, 0x80);
  1934  02A5  22F9               	fcall	PL8	;call to abstracted procedure
  1935  02A6  251B               	fcall	_LT8920_ble_write_reg
  1936                           
  1937                           ;rx_ble.c: 184: LT8920_write_ble_fifo(PDUDATA, len);
  1938  02A7  0869               	movf	LT8920_ble_tx_start@len,w
  1939  02A8  00F9               	movwf	?_LT8920_write_ble_fifo
  1940  02A9  0868               	movf	LT8920_ble_tx_start@PDUDATA,w
  1941  02AA  2528               	fcall	_LT8920_write_ble_fifo
  1942                           
  1943                           ;rx_ble.c: 185: if(chanel == 37)
  1944  02AB  086A               	movf	LT8920_ble_tx_start@chanel,w
  1945  02AC  3A25               	xorlw	37
  1946  02AD  1D03               	skipz
  1947  02AE  2AB4               	goto	l5617
  1948  02AF  3007               	movlw	7
  1949                           
  1950                           ;rx_ble.c: 186: {
  1951                           ;rx_ble.c: 187: LT8920_ble_write_reg(7, 0x01, 0);
  1952  02B0  01F7               	clrf	?_LT8920_ble_write_reg
  1953  02B1  0AF7               	incf	?_LT8920_ble_write_reg,f
  1954  02B2  01F8               	clrf	?_LT8920_ble_write_reg+1
  1955  02B3  2AC3               	goto	L1
  1956  02B4                     l5617:	
  1957                           ;rx_ble.c: 188: }
  1958                           
  1959                           
  1960                           ;rx_ble.c: 189: else if(chanel == 38)
  1961  02B4  086A               	movf	LT8920_ble_tx_start@chanel,w
  1962  02B5  3A26               	xorlw	38
  1963  02B6  1D03               	skipz
  1964  02B7  2ABA               	goto	l5621
  1965  02B8  3018               	movlw	24
  1966  02B9  2ABF               	goto	L2
  1967  02BA                     l5621:	
  1968                           ;rx_ble.c: 192: }
  1969                           
  1970                           ;rx_ble.c: 190: {
  1971                           ;rx_ble.c: 191: LT8920_ble_write_reg(7, 0x01, 24);
  1972                           
  1973                           
  1974                           ;rx_ble.c: 193: else if(chanel == 39)
  1975  02BA  086A               	movf	LT8920_ble_tx_start@chanel,w
  1976  02BB  3A27               	xorlw	39
  1977  02BC  1D03               	skipz
  1978  02BD  2AC4               	goto	l5625
  1979  02BE  304E               	movlw	78
  1980  02BF                     L2:	
  1981                           
  1982                           ;rx_ble.c: 194: {
  1983                           ;rx_ble.c: 195: LT8920_ble_write_reg(7, 0x01, 78);
  1984  02BF  01F7               	clrf	?_LT8920_ble_write_reg
  1985  02C0  0AF7               	incf	?_LT8920_ble_write_reg,f
  1986  02C1  00F8               	movwf	?_LT8920_ble_write_reg+1
  1987  02C2  3007               	movlw	7
  1988  02C3                     L1:	
  1989  02C3  251B               	fcall	_LT8920_ble_write_reg
  1990  02C4                     l5625:	
  1991                           
  1992                           ;rx_ble.c: 196: }
  1993                           ;rx_ble.c: 197: LT8920_pdudata_white(chanel, PDUDATA, len);
  1994  02C4  22C6               	fcall	PL7	;call to abstracted procedure
  1995  02C5  2A5C               	ljmp	_LT8920_pdudata_white
  1996  02C6                     __end_of_LT8920_ble_tx_start:	
  1997  02C6                     PL7:	
  1998  02C6  0868               	movf	LT8920_ble_tx_start@PDUDATA,w
  1999  02C7  00F2               	movwf	?_LT8920_pdudata_white
  2000  02C8  0869               	movf	LT8920_ble_tx_start@len,w
  2001  02C9  00F3               	movwf	?_LT8920_pdudata_white+1
  2002  02CA  086A               	movf	LT8920_ble_tx_start@chanel,w
  2003  02CB  0008               	return
  2004                           
  2005                           	psect	text798
  2006  04C5                     __ptext798:	
  2007 ;; =============== function _LT8920_ble_tx_start ends ============
  2008                           
  2009                           
  2010 ;; *************** function _LT8920_ble_tx_enable *****************
  2011 ;; Defined at:
  2012 ;;		line 168 in file "rx_ble.c"
  2013 ;; Parameters:    Size  Location     Type
  2014 ;;		None
  2015 ;; Auto vars:     Size  Location     Type
  2016 ;;		None
  2017 ;; Return value:  Size  Location     Type
  2018 ;;		None               void
  2019 ;; Registers used:
  2020 ;;		wreg, status,2, status,0, pclath, cstack
  2021 ;; Tracked objects:
  2022 ;;		On entry : 60/0
  2023 ;;		On exit  : 60/0
  2024 ;;		Unchanged: FFF9F/0
  2025 ;; Data sizes:     COMMON   BANK0   BANK1
  2026 ;;      Params:         0       0       0
  2027 ;;      Locals:         0       0       0
  2028 ;;      Temps:          0       0       0
  2029 ;;      Totals:         0       0       0
  2030 ;;Total ram usage:        0 bytes
  2031 ;; Hardware stack levels used:    1
  2032 ;; Hardware stack levels required when called:    4
  2033 ;; This function calls:
  2034 ;;		_LT8920_ble_write_reg
  2035 ;; This function is called by:
  2036 ;;		_LT8920_ble_tx
  2037 ;; This function uses a non-reentrant model
  2038 ;;
  2039  04C5                     _LT8920_ble_tx_enable:	
  2040                           
  2041                           ;rx_ble.c: 171: LT8920_ble_write_reg(32, 0x4a, 0x08);
  2042                           
  2043                           ; Regs used in _LT8920_ble_tx_enable: [wreg+status,2+status,0+pclath+cstack]
  2044  04C5  304A               	movlw	74
  2045  04C6  00F7               	movwf	?_LT8920_ble_write_reg
  2046  04C7  3008               	movlw	8
  2047  04C8  00F8               	movwf	?_LT8920_ble_write_reg+1
  2048  04C9  3020               	movlw	32
  2049  04CA  251B               	fcall	_LT8920_ble_write_reg
  2050                           
  2051                           ;rx_ble.c: 172: LT8920_ble_write_reg(36, 0xAA, 0xaa);
  2052  04CB  30AA               	movlw	170
  2053  04CC  00F7               	movwf	?_LT8920_ble_write_reg
  2054  04CD  00F8               	movwf	?_LT8920_ble_write_reg+1
  2055  04CE  3024               	movlw	36
  2056  04CF  251B               	fcall	_LT8920_ble_write_reg
  2057                           
  2058                           ;rx_ble.c: 173: LT8920_ble_write_reg(39, 0xAA, 0xaa);
  2059  04D0  30AA               	movlw	170
  2060  04D1  00F7               	movwf	?_LT8920_ble_write_reg
  2061  04D2  00F8               	movwf	?_LT8920_ble_write_reg+1
  2062  04D3  3027               	movlw	39
  2063  04D4  2D1B               	ljmp	_LT8920_ble_write_reg
  2064  04D5                     __end_of_LT8920_ble_tx_enable:	
  2065                           
  2066                           	psect	text799
  2067  0522                     __ptext799:	
  2068 ;; =============== function _LT8920_ble_tx_enable ends ============
  2069                           
  2070                           
  2071 ;; *************** function _ble_read_fifo *****************
  2072 ;; Defined at:
  2073 ;;		line 16 in file "spi_ble.c"
  2074 ;; Parameters:    Size  Location     Type
  2075 ;;  buf             1    wreg     PTR unsigned char 
  2076 ;;		 -> RXADVDATA(29), 
  2077 ;;  len             1   10[COMMON] unsigned char 
  2078 ;; Auto vars:     Size  Location     Type
  2079 ;;  buf             1    0[BANK0 ] PTR unsigned char 
  2080 ;;		 -> RXADVDATA(29), 
  2081 ;; Return value:  Size  Location     Type
  2082 ;;		None               void
  2083 ;; Registers used:
  2084 ;;		wreg, fsr0l, fsr0h, status,2, status,0, pclath, cstack
  2085 ;; Tracked objects:
  2086 ;;		On entry : 60/0
  2087 ;;		On exit  : 60/0
  2088 ;;		Unchanged: FFE9F/0
  2089 ;; Data sizes:     COMMON   BANK0   BANK1
  2090 ;;      Params:         1       0       0
  2091 ;;      Locals:         0       1       0
  2092 ;;      Temps:          0       0       0
  2093 ;;      Totals:         1       1       0
  2094 ;;Total ram usage:        2 bytes
  2095 ;; Hardware stack levels used:    1
  2096 ;; Hardware stack levels required when called:    3
  2097 ;; This function calls:
  2098 ;;		_LT_ReadBUF_ble
  2099 ;; This function is called by:
  2100 ;;		_LT8920_read_ble_fifo
  2101 ;; This function uses a non-reentrant model
  2102 ;;
  2103  0522                     _ble_read_fifo:	
  2104                           
  2105                           ; Regs used in _ble_read_fifo: [wreg-fsr0h+status,2+status,0+pclath+cstack]
  2106                           ;ble_read_fifo@buf stored from wreg
  2107  0522  00DD               	movwf	ble_read_fifo@buf
  2108                           
  2109                           ;spi_ble.c: 18: LT_ReadBUF_ble(50, buf,len);
  2110  0523  00F4               	movwf	?_LT_ReadBUF_ble
  2111  0524  087A               	movf	ble_read_fifo@len,w
  2112  0525  00F5               	movwf	?_LT_ReadBUF_ble+1
  2113  0526  3032               	movlw	50
  2114  0527  2C52               	ljmp	_LT_ReadBUF_ble
  2115  0528                     __end_of_ble_read_fifo:	
  2116                           
  2117                           	psect	text800
  2118  0528                     __ptext800:	
  2119 ;; =============== function _ble_read_fifo ends ============
  2120                           
  2121                           
  2122 ;; *************** function _LT8920_write_ble_fifo *****************
  2123 ;; Defined at:
  2124 ;;		line 12 in file "spi_ble.c"
  2125 ;; Parameters:    Size  Location     Type
  2126 ;;  txdata          1    wreg     PTR unsigned char 
  2127 ;;		 -> PDUDATA(26), 
  2128 ;;  len             1    9[COMMON] unsigned char 
  2129 ;; Auto vars:     Size  Location     Type
  2130 ;;  txdata          1   10[COMMON] PTR unsigned char 
  2131 ;;		 -> PDUDATA(26), 
  2132 ;; Return value:  Size  Location     Type
  2133 ;;		None               void
  2134 ;; Registers used:
  2135 ;;		wreg, fsr0l, fsr0h, status,2, status,0, pclath, cstack
  2136 ;; Tracked objects:
  2137 ;;		On entry : 60/0
  2138 ;;		On exit  : 60/0
  2139 ;;		Unchanged: FFE9F/0
  2140 ;; Data sizes:     COMMON   BANK0   BANK1
  2141 ;;      Params:         1       0       0
  2142 ;;      Locals:         1       0       0
  2143 ;;      Temps:          0       0       0
  2144 ;;      Totals:         2       0       0
  2145 ;;Total ram usage:        2 bytes
  2146 ;; Hardware stack levels used:    1
  2147 ;; Hardware stack levels required when called:    3
  2148 ;; This function calls:
  2149 ;;		_LT_WriteBUF_ble
  2150 ;; This function is called by:
  2151 ;;		_LT8920_ble_tx_start
  2152 ;; This function uses a non-reentrant model
  2153 ;;
  2154  0528                     _LT8920_write_ble_fifo:	
  2155                           
  2156                           ; Regs used in _LT8920_write_ble_fifo: [wreg-fsr0h+status,2+status,0+pclath+cstack]
  2157                           ;LT8920_write_ble_fifo@txdata stored from wreg
  2158  0528  00FA               	movwf	LT8920_write_ble_fifo@txdata
  2159                           
  2160                           ;spi_ble.c: 13: LT_WriteBUF_ble(50, txdata,len);
  2161  0529  00F4               	movwf	?_LT_WriteBUF_ble
  2162  052A  0879               	movf	LT8920_write_ble_fifo@len,w
  2163  052B  00F5               	movwf	?_LT_WriteBUF_ble+1
  2164  052C  3032               	movlw	50
  2165  052D  2BE6               	ljmp	_LT_WriteBUF_ble
  2166  052E                     __end_of_LT8920_write_ble_fifo:	
  2167                           
  2168                           	psect	text801
  2169  051B                     __ptext801:	
  2170 ;; =============== function _LT8920_write_ble_fifo ends ============
  2171                           
  2172                           
  2173 ;; *************** function _LT8920_ble_write_reg *****************
  2174 ;; Defined at:
  2175 ;;		line 2 in file "spi_ble.c"
  2176 ;; Parameters:    Size  Location     Type
  2177 ;;  reg             1    wreg     unsigned char 
  2178 ;;  first           1    7[COMMON] unsigned char 
  2179 ;;  second          1    8[COMMON] unsigned char 
  2180 ;; Auto vars:     Size  Location     Type
  2181 ;;  reg             1    9[COMMON] unsigned char 
  2182 ;; Return value:  Size  Location     Type
  2183 ;;		None               void
  2184 ;; Registers used:
  2185 ;;		wreg, status,2, status,0, pclath, cstack
  2186 ;; Tracked objects:
  2187 ;;		On entry : 60/0
  2188 ;;		On exit  : 60/0
  2189 ;;		Unchanged: FFF9F/0
  2190 ;; Data sizes:     COMMON   BANK0   BANK1
  2191 ;;      Params:         2       0       0
  2192 ;;      Locals:         1       0       0
  2193 ;;      Temps:          0       0       0
  2194 ;;      Totals:         3       0       0
  2195 ;;Total ram usage:        3 bytes
  2196 ;; Hardware stack levels used:    1
  2197 ;; Hardware stack levels required when called:    3
  2198 ;; This function calls:
  2199 ;;		_LT_WriteReg
  2200 ;; This function is called by:
  2201 ;;		_LT8920_ble_tx_enable
  2202 ;;		_LT8920_ble_tx_start
  2203 ;;		_LT8920_ble_rx_enable
  2204 ;;		_LT8920_ble_rx_start
  2205 ;;		_LT8920_read_ble_fifo
  2206 ;; This function uses a non-reentrant model
  2207 ;;
  2208  051B                     _LT8920_ble_write_reg:	
  2209                           
  2210                           ; Regs used in _LT8920_ble_write_reg: [wreg+status,2+status,0+pclath+cstack]
  2211                           ;LT8920_ble_write_reg@reg stored from wreg
  2212  051B  00F9               	movwf	LT8920_ble_write_reg@reg
  2213                           
  2214                           ;spi_ble.c: 4: LT_WriteReg(reg, first, second);
  2215  051C  0877               	movf	LT8920_ble_write_reg@first,w
  2216  051D  00F4               	movwf	?_LT_WriteReg
  2217  051E  0878               	movf	LT8920_ble_write_reg@second,w
  2218  051F  00F5               	movwf	?_LT_WriteReg+1
  2219  0520  0879               	movf	LT8920_ble_write_reg@reg,w
  2220  0521  2CFE               	ljmp	_LT_WriteReg
  2221  0522                     __end_of_LT8920_ble_write_reg:	
  2222                           
  2223                           	psect	text802
  2224  0186                     __ptext802:	
  2225 ;; =============== function _LT8920_ble_write_reg ends ============
  2226                           
  2227                           
  2228 ;; *************** function _LT89xx_ModeSet *****************
  2229 ;; Defined at:
  2230 ;;		line 237 in file "lt89xxdrvspi.c"
  2231 ;; Parameters:    Size  Location     Type
  2232 ;;  dat1            1    wreg     unsigned char 
  2233 ;; Auto vars:     Size  Location     Type
  2234 ;;  dat1            1    7[COMMON] unsigned char 
  2235 ;; Return value:  Size  Location     Type
  2236 ;;		None               void
  2237 ;; Registers used:
  2238 ;;		wreg, fsr0l, fsr0h, status,2, status,0, pclath, cstack
  2239 ;; Tracked objects:
  2240 ;;		On entry : 17F/0
  2241 ;;		On exit  : 17F/0
  2242 ;;		Unchanged: FFE80/0
  2243 ;; Data sizes:     COMMON   BANK0   BANK1
  2244 ;;      Params:         0       0       0
  2245 ;;      Locals:         1       0       0
  2246 ;;      Temps:          0       0       0
  2247 ;;      Totals:         1       0       0
  2248 ;;Total ram usage:        1 bytes
  2249 ;; Hardware stack levels used:    1
  2250 ;; Hardware stack levels required when called:    3
  2251 ;; This function calls:
  2252 ;;		_LT_WriteReg
  2253 ;; This function is called by:
  2254 ;;		_main
  2255 ;; This function uses a non-reentrant model
  2256 ;;
  2257  0186                     _LT89xx_ModeSet:	
  2258                           
  2259                           ; Regs used in _LT89xx_ModeSet: [wreg-fsr0h+status,2+status,0+pclath+cstack]
  2260                           ;LT89xx_ModeSet@dat1 stored from wreg
  2261  0186  00F7               	movwf	LT89xx_ModeSet@dat1
  2262                           
  2263                           ; Switch size 1, requested type "space"
  2264                           ; Number of cases is 9, Range of values is 14 to 25
  2265                           ; switch strategies available:
  2266                           ; Name         Instructions Cycles
  2267                           ; direct_byte           21     9 (fixed)
  2268                           ; simple_byte           28    15 (average)
  2269                           ; jumptable            263     9 (fixed)
  2270                           ;	Chosen strategy is direct_byte
  2271                           
  2272                           ;lt89xxdrvspi.c: 278: break;
  2273                           
  2274                           ;lt89xxdrvspi.c: 240: switch(dat1)
  2275  0187  3EF2               	addlw	-14
  2276  0188  1C03               	skipc
  2277  0189  0008               	return
  2278  018A  0084               	movwf	4
  2279  018B  300C               	movlw	12
  2280  018C  0204               	subwf	4,w
  2281  018D  1803               	skipnc
  2282  018E  0008               	return
  2283  018F  3004               	movlw	high S5765
  2284  0190  008A               	movwf	10
  2285  0191  30F2               	movlw	low S5765
  2286  0192  0704               	addwf	4,w
  2287  0193  0082               	movwf	2
  2288  0194                     l2296:	
  2289  0194  0008               	return
  2290  0195                     l5577:	
  2291  0195  3007               	movlw	7
  2292                           
  2293                           ;lt89xxdrvspi.c: 243: LT_WriteReg(7, 0x00, 0x00);
  2294  0196  01F4               	clrf	?_LT_WriteReg
  2295  0197  01F5               	clrf	?_LT_WriteReg+1
  2296  0198  24FE               	fcall	_LT_WriteReg
  2297                           
  2298                           ;lt89xxdrvspi.c: 244: LT_WriteReg(27, 0x13, 0x00);
  2299  0199  3013               	movlw	19
  2300  019A  00F4               	movwf	?_LT_WriteReg
  2301  019B  301B               	movlw	27
  2302  019C  01F5               	clrf	?_LT_WriteReg+1
  2303  019D  24FE               	fcall	_LT_WriteReg
  2304                           
  2305                           ;lt89xxdrvspi.c: 245: LT_WriteReg(35, 0x43, 0x00);
  2306  019E  3043               	movlw	67
  2307  019F  00F4               	movwf	?_LT_WriteReg
  2308  01A0  3023               	movlw	35
  2309  01A1  01F5               	clrf	?_LT_WriteReg+1
  2310  01A2  2CFE               	ljmp	_LT_WriteReg
  2311  01A3                     l5579:	
  2312                           ;lt89xxdrvspi.c: 246: break;
  2313                           
  2314                           
  2315                           ;lt89xxdrvspi.c: 254: LT_WriteReg(52, 0x80, 0x80);
  2316  01A3  3080               	movlw	128
  2317  01A4  00F4               	movwf	?_LT_WriteReg
  2318  01A5  00F5               	movwf	?_LT_WriteReg+1
  2319  01A6  3034               	movlw	52
  2320  01A7  2CFE               	ljmp	_LT_WriteReg
  2321  01A8                     l5581:	
  2322                           ;lt89xxdrvspi.c: 255: break;
  2323                           
  2324  01A8  3007               	movlw	7
  2325                           
  2326                           ;lt89xxdrvspi.c: 257: LT_WriteReg(7, 0x00, 0x00);
  2327  01A9  01F4               	clrf	?_LT_WriteReg
  2328  01AA  01F5               	clrf	?_LT_WriteReg+1
  2329  01AB  2CFE               	ljmp	_LT_WriteReg
  2330  01AC                     l5583:	
  2331                           ;lt89xxdrvspi.c: 258: break;
  2332                           
  2333  01AC  302C               	movlw	44
  2334                           
  2335                           ;lt89xxdrvspi.c: 260: LT_WriteReg(44, 0x01, 0x01);
  2336  01AD  01F4               	clrf	?_LT_WriteReg
  2337  01AE  0AF4               	incf	?_LT_WriteReg,f
  2338  01AF  01F5               	clrf	?_LT_WriteReg+1
  2339  01B0  0AF5               	incf	?_LT_WriteReg+1,f
  2340  01B1  24FE               	fcall	_LT_WriteReg
  2341                           
  2342                           ;lt89xxdrvspi.c: 261: LT_WriteReg(45, 0x05, 0x52);
  2343  01B2  21C8               	fcall	PL4	;call to abstracted procedure
  2344  01B3  2CFE               	ljmp	_LT_WriteReg
  2345  01B4                     l5585:	
  2346                           ;lt89xxdrvspi.c: 262: break;
  2347                           
  2348                           
  2349                           ;lt89xxdrvspi.c: 264: LT_WriteReg(44, 0x02, 0x01);
  2350  01B4  3002               	movlw	2
  2351  01B5  21CD               	fcall	PL9	;call to abstracted procedure
  2352  01B6  24FE               	fcall	_LT_WriteReg
  2353                           
  2354                           ;lt89xxdrvspi.c: 265: LT_WriteReg(45, 0x05, 0x52);
  2355  01B7  21C8               	fcall	PL4	;call to abstracted procedure
  2356  01B8  2CFE               	ljmp	_LT_WriteReg
  2357  01B9                     l5587:	
  2358                           ;lt89xxdrvspi.c: 266: break;
  2359                           
  2360                           
  2361                           ;lt89xxdrvspi.c: 268: LT_WriteReg(44, 0x04, 0x01);
  2362  01B9  3004               	movlw	4
  2363  01BA  21CD               	fcall	PL9	;call to abstracted procedure
  2364  01BB  24FE               	fcall	_LT_WriteReg
  2365                           
  2366                           ;lt89xxdrvspi.c: 269: LT_WriteReg(45, 0x05, 0x52);
  2367  01BC  21C8               	fcall	PL4	;call to abstracted procedure
  2368  01BD  2CFE               	ljmp	_LT_WriteReg
  2369  01BE                     l5589:	
  2370                           ;lt89xxdrvspi.c: 270: break;
  2371                           
  2372                           
  2373                           ;lt89xxdrvspi.c: 272: LT_WriteReg(44, 0x08, 0x01);
  2374  01BE  3008               	movlw	8
  2375  01BF  21CD               	fcall	PL9	;call to abstracted procedure
  2376  01C0  24FE               	fcall	_LT_WriteReg
  2377                           
  2378                           ;lt89xxdrvspi.c: 273: LT_WriteReg(45, 0x05, 0x52);
  2379  01C1  21C8               	fcall	PL4	;call to abstracted procedure
  2380  01C2  2CFE               	ljmp	_LT_WriteReg
  2381  01C3                     l5591:	
  2382                           ;lt89xxdrvspi.c: 274: break;
  2383                           
  2384                           
  2385                           ;lt89xxdrvspi.c: 276: LT_WriteReg(44, 0x10, 0x01);
  2386  01C3  3010               	movlw	16
  2387  01C4  21CD               	fcall	PL9	;call to abstracted procedure
  2388  01C5  24FE               	fcall	_LT_WriteReg
  2389                           
  2390                           ;lt89xxdrvspi.c: 277: LT_WriteReg(45, 0x05, 0x52);
  2391  01C6  21C8               	fcall	PL4	;call to abstracted procedure
  2392  01C7  2CFE               	ljmp	_LT_WriteReg
  2393  01C8                     __end_of_LT89xx_ModeSet:	
  2394  01C8                     PL4:	
  2395  01C8  3005               	movlw	5
  2396  01C9  00F4               	movwf	?_LT_WriteReg
  2397  01CA  3052               	movlw	82
  2398  01CB  00F5               	movwf	?_LT_WriteReg+1
  2399  01CC  342D               	retlw	45
  2400  01CD                     PL9:	
  2401  01CD  00F4               	movwf	?_LT_WriteReg
  2402  01CE  302C               	movlw	44
  2403  01CF  01F5               	clrf	?_LT_WriteReg+1
  2404  01D0  0AF5               	incf	?_LT_WriteReg+1,f
  2405  01D1  0008               	return
  2406                           
  2407                           	psect	swtext1
  2408  04F2                     __pswtext1:	
  2409  04F2                     S5765:	
  2410  04F2  29A3               	ljmp	l5579
  2411  04F3  2994               	ljmp	l2296
  2412  04F4  2994               	ljmp	l2296
  2413  04F5  2994               	ljmp	l2296
  2414  04F6  2995               	ljmp	l5577
  2415  04F7  29A8               	ljmp	l5581
  2416  04F8  2994               	ljmp	l2296
  2417  04F9  29AC               	ljmp	l5583
  2418  04FA  29B4               	ljmp	l5585
  2419  04FB  29B9               	ljmp	l5587
  2420  04FC  29BE               	ljmp	l5589
  2421  04FD  29C3               	ljmp	l5591
  2422                           
  2423                           	psect	text803
  2424  02FD                     __ptext803:	
  2425 ;; =============== function _LT89xx_ModeSet ends ============
  2426                           
  2427                           
  2428 ;; *************** function _LT89XX_INIT *****************
  2429 ;; Defined at:
  2430 ;;		line 213 in file "lt89xxdrvspi.c"
  2431 ;; Parameters:    Size  Location     Type
  2432 ;;		None
  2433 ;; Auto vars:     Size  Location     Type
  2434 ;;  CFG_CNT         1    7[COMMON] unsigned char 
  2435 ;; Return value:  Size  Location     Type
  2436 ;;		None               void
  2437 ;; Registers used:
  2438 ;;		wreg, fsr0l, fsr0h, status,2, status,0, pclath, cstack
  2439 ;; Tracked objects:
  2440 ;;		On entry : 17F/20
  2441 ;;		On exit  : 17F/0
  2442 ;;		Unchanged: FFE80/0
  2443 ;; Data sizes:     COMMON   BANK0   BANK1
  2444 ;;      Params:         0       0       0
  2445 ;;      Locals:         1       0       0
  2446 ;;      Temps:          0       0       0
  2447 ;;      Totals:         1       0       0
  2448 ;;Total ram usage:        1 bytes
  2449 ;; Hardware stack levels used:    1
  2450 ;; Hardware stack levels required when called:    3
  2451 ;; This function calls:
  2452 ;;		_DELAY_MS
  2453 ;;		_LT_WriteReg
  2454 ;;		_LT_ReadReg
  2455 ;; This function is called by:
  2456 ;;		_main
  2457 ;; This function uses a non-reentrant model
  2458 ;;
  2459  02FD                     _LT89XX_INIT:	
  2460  02FD                     l2276:	
  2461                           ; Regs used in _LT89XX_INIT: [wreg-fsr0h+status,2+status,0+pclath+cstack]
  2462                           ;lt89xxdrvspi.c: 214: unsigned char CFG_CNT;
  2463                           ;lt89xxdrvspi.c: 217: while(1)
  2464                           
  2465  02FD  300A               	movlw	10
  2466                           
  2467                           ;lt89xxdrvspi.c: 218: {
  2468                           ;lt89xxdrvspi.c: 220: RA7 = 0; DELAY_MS(10);
  2469  02FE  1283               	bcf	3,5	;RP0=0, select bank0
  2470  02FF  1385               	bcf	5,7
  2471  0300  247B               	fcall	_DELAY_MS
  2472  0301  3064               	movlw	100
  2473                           
  2474                           ;lt89xxdrvspi.c: 221: RA7 = 1; DELAY_MS(100);
  2475  0302  1785               	bsf	5,7
  2476  0303  247B               	fcall	_DELAY_MS
  2477                           
  2478                           ;lt89xxdrvspi.c: 224: for(CFG_CNT=0;CFG_CNT<34;CFG_CNT++)
  2479  0304  01F7               	clrf	LT89XX_INIT@CFG_CNT
  2480  0305                     l5561:	
  2481                           
  2482                           ;lt89xxdrvspi.c: 225: {
  2483                           ;lt89xxdrvspi.c: 226: LT_WriteReg(LDT8900config[CFG_CNT][0],LDT8900config[CFG_CNT][1],LD
      +                          T8900config[CFG_CNT][2]);
  2484  0305  0877               	movf	LT89XX_INIT@CFG_CNT,w
  2485  0306  0777               	addwf	LT89XX_INIT@CFG_CNT,w
  2486  0307  0777               	addwf	LT89XX_INIT@CFG_CNT,w
  2487  0308  3E02               	addlw	low ((_LDT8900config-__stringbase+1))
  2488  0309  0084               	movwf	4
  2489  030A  200B               	fcall	stringdir
  2490  030B  00F4               	movwf	?_LT_WriteReg
  2491  030C  0877               	movf	LT89XX_INIT@CFG_CNT,w
  2492  030D  0777               	addwf	LT89XX_INIT@CFG_CNT,w
  2493  030E  0777               	addwf	LT89XX_INIT@CFG_CNT,w
  2494  030F  3E03               	addlw	low ((_LDT8900config-__stringbase+2))
  2495  0310  0084               	movwf	4
  2496  0311  200B               	fcall	stringdir
  2497  0312  00F5               	movwf	?_LT_WriteReg+1
  2498  0313  0877               	movf	LT89XX_INIT@CFG_CNT,w
  2499  0314  0777               	addwf	LT89XX_INIT@CFG_CNT,w
  2500  0315  0777               	addwf	LT89XX_INIT@CFG_CNT,w
  2501  0316  3E01               	addlw	low (_LDT8900config-__stringbase)
  2502  0317  0084               	movwf	4
  2503  0318  200B               	fcall	stringdir
  2504  0319  24FE               	fcall	_LT_WriteReg
  2505  031A  3022               	movlw	34
  2506  031B  0AF7               	incf	LT89XX_INIT@CFG_CNT,f
  2507  031C  0277               	subwf	LT89XX_INIT@CFG_CNT,w
  2508  031D  1C03               	skipc
  2509  031E  2B05               	goto	l5561
  2510                           
  2511                           ;lt89xxdrvspi.c: 228: }
  2512                           ;lt89xxdrvspi.c: 230: LT_ReadReg(0);
  2513  031F  3000               	movlw	0
  2514  0320  2509               	fcall	_LT_ReadReg
  2515                           
  2516                           ;lt89xxdrvspi.c: 231: if(RegH==0x6F&&RegL==0XE0)
  2517  0321  087B               	movf	_RegH,w
  2518  0322  3A6F               	xorlw	111
  2519  0323  1D03               	skipz
  2520  0324  2AFD               	goto	l2276
  2521  0325  0823               	movf	_RegL,w
  2522  0326  3AE0               	xorlw	224
  2523  0327  1903               	btfsc	3,2
  2524  0328  0008               	return
  2525  0329  2AFD               	goto	l2276
  2526  032A                     __end_of_LT89XX_INIT:	
  2527                           
  2528                           	psect	text804
  2529  00EC                     __ptext804:	
  2530 ;; =============== function _LT89XX_INIT ends ============
  2531                           
  2532                           
  2533 ;; *************** function _get_crc *****************
  2534 ;; Defined at:
  2535 ;;		line 35 in file "rx_ble.c"
  2536 ;; Parameters:    Size  Location     Type
  2537 ;;  user_data_bu    1    wreg     PTR unsigned char 
  2538 ;;		 -> PDUDATA(26), 
  2539 ;;  lenth           1    6[COMMON] unsigned char 
  2540 ;; Auto vars:     Size  Location     Type
  2541 ;;  user_data_bu    1    9[BANK0 ] PTR unsigned char 
  2542 ;;		 -> PDUDATA(26), 
  2543 ;;  e               1   10[BANK0 ] unsigned char 
  2544 ;;  i               1    8[BANK0 ] unsigned char 
  2545 ;;  c2              1    7[BANK0 ] unsigned char 
  2546 ;;  c1              1    6[BANK0 ] unsigned char 
  2547 ;;  c0              1    5[BANK0 ] unsigned char 
  2548 ;; Return value:  Size  Location     Type
  2549 ;;		None               void
  2550 ;; Registers used:
  2551 ;;		wreg, fsr0l, fsr0h, status,2, status,0, pclath, cstack
  2552 ;; Tracked objects:
  2553 ;;		On entry : 60/0
  2554 ;;		On exit  : 160/0
  2555 ;;		Unchanged: FFE00/0
  2556 ;; Data sizes:     COMMON   BANK0   BANK1
  2557 ;;      Params:         1       0       0
  2558 ;;      Locals:         0       6       0
  2559 ;;      Temps:          0       5       0
  2560 ;;      Totals:         1      11       0
  2561 ;;Total ram usage:       12 bytes
  2562 ;; Hardware stack levels used:    1
  2563 ;; Hardware stack levels required when called:    2
  2564 ;; This function calls:
  2565 ;;		_roll_data
  2566 ;; This function is called by:
  2567 ;;		_LT8920_ble_tx_start
  2568 ;; This function uses a non-reentrant model
  2569 ;;
  2570  00EC                     _get_crc:	
  2571                           
  2572                           ; Regs used in _get_crc: [wreg-fsr0h+status,2+status,0+pclath+cstack]
  2573                           ;get_crc@user_data_buf stored from wreg
  2574  00EC  00E6               	movwf	get_crc@user_data_buf
  2575                           
  2576                           ;rx_ble.c: 36: unsigned char c0, c1, c2;
  2577                           ;rx_ble.c: 37: unsigned char i, e;
  2578                           ;rx_ble.c: 40: c0 = 85;
  2579  00ED  3055               	movlw	85
  2580  00EE  00E2               	movwf	get_crc@c0
  2581                           
  2582                           ;rx_ble.c: 41: c1 = 85;
  2583  00EF  00E3               	movwf	get_crc@c1
  2584                           
  2585                           ;rx_ble.c: 42: c2 = 85;
  2586  00F0  00E4               	movwf	get_crc@c2
  2587                           
  2588                           ;rx_ble.c: 45: for(i = 0; i < lenth - 3; i++)
  2589  00F1  01E5               	clrf	get_crc@i
  2590  00F2                     l5547:	
  2591  00F2  0876               	movf	get_crc@lenth,w
  2592  00F3  3EFD               	addlw	253
  2593  00F4  00DD               	movwf	??_get_crc
  2594  00F5  30FF               	movlw	255
  2595  00F6  1803               	skipnc
  2596  00F7  3000               	movlw	0
  2597  00F8  00DE               	movwf	??_get_crc+1
  2598  00F9  3A80               	xorlw	128
  2599  00FA  3C80               	sublw	128
  2600  00FB  1D03               	skipz
  2601  00FC  28FF               	goto	u1455
  2602  00FD  085D               	movf	??_get_crc,w
  2603  00FE  0265               	subwf	get_crc@i,w
  2604  00FF                     u1455:	
  2605  00FF  1803               	btfsc	3,0
  2606  0100  296A               	goto	l5549
  2607                           
  2608                           ;rx_ble.c: 46: {
  2609                           ;rx_ble.c: 47: e = roll_data(user_data_buf[i])^c2;
  2610  0101  1283               	bcf	3,5	;RP0=0, select bank0
  2611  0102  1303               	bcf	3,6	;RP1=0, select bank0
  2612  0103  0865               	movf	get_crc@i,w
  2613  0104  0766               	addwf	get_crc@user_data_buf,w
  2614  0105  00DD               	movwf	??_get_crc
  2615  0106  0084               	movwf	4
  2616  0107  1383               	bcf	3,7	;select IRP bank0
  2617  0108  0800               	movf	0,w
  2618  0109  23A0               	fcall	_roll_data
  2619  010A  0664               	xorwf	get_crc@c2,w
  2620  010B  00E7               	movwf	get_crc@e
  2621                           
  2622                           ;rx_ble.c: 49: c2 = ((e >> 6)) ^ ((e >> 7))^c1;
  2623  010C  00DD               	movwf	??_get_crc
  2624  010D  3007               	movlw	7
  2625  010E                     u1395:	
  2626  010E  1003               	clrc
  2627  010F  0CDD               	rrf	??_get_crc,f
  2628  0110  3EFF               	addlw	-1
  2629  0111  1D03               	skipz
  2630  0112  290E               	goto	u1395
  2631  0113  0867               	movf	get_crc@e,w
  2632  0114  00DE               	movwf	??_get_crc+1
  2633  0115  3006               	movlw	6
  2634  0116                     u1405:	
  2635  0116  1003               	clrc
  2636  0117  0CDE               	rrf	??_get_crc+1,f
  2637  0118  3EFF               	addlw	-1
  2638  0119  1D03               	skipz
  2639  011A  2916               	goto	u1405
  2640  011B  085E               	movf	??_get_crc+1,w
  2641  011C  065D               	xorwf	??_get_crc,w
  2642  011D  0663               	xorwf	get_crc@c1,w
  2643  011E  00E4               	movwf	get_crc@c2
  2644                           
  2645                           ;rx_ble.c: 50: c1 = ((e << 1) & 255) ^ ((e << 2) & 255) ^ ((e >> 2)) ^ ((e >> 4)) ^ ((e 
      +                          >> 5)) ^ ((e >> 7))^c0;
  2646  011F  0867               	movf	get_crc@e,w
  2647  0120  00DD               	movwf	??_get_crc
  2648  0121  3007               	movlw	7
  2649  0122                     u1415:	
  2650  0122  1003               	clrc
  2651  0123  0CDD               	rrf	??_get_crc,f
  2652  0124  3EFF               	addlw	-1
  2653  0125  1D03               	skipz
  2654  0126  2922               	goto	u1415
  2655  0127  0867               	movf	get_crc@e,w
  2656  0128  00DE               	movwf	??_get_crc+1
  2657  0129  3005               	movlw	5
  2658  012A                     u1425:	
  2659  012A  1003               	clrc
  2660  012B  0CDE               	rrf	??_get_crc+1,f
  2661  012C  3EFF               	addlw	-1
  2662  012D  1D03               	skipz
  2663  012E  292A               	goto	u1425
  2664  012F  0867               	movf	get_crc@e,w
  2665  0130  00DF               	movwf	??_get_crc+2
  2666  0131  3004               	movlw	4
  2667  0132                     u1435:	
  2668  0132  1003               	clrc
  2669  0133  0CDF               	rrf	??_get_crc+2,f
  2670  0134  3EFF               	addlw	-1
  2671  0135  1D03               	skipz
  2672  0136  2932               	goto	u1435
  2673  0137  0867               	movf	get_crc@e,w
  2674  0138  00E0               	movwf	??_get_crc+3
  2675  0139  1003               	clrc
  2676  013A  0CE0               	rrf	??_get_crc+3,f
  2677  013B  1003               	clrc
  2678  013C  0CE0               	rrf	??_get_crc+3,f
  2679  013D  0867               	movf	get_crc@e,w
  2680  013E  00E1               	movwf	??_get_crc+4
  2681  013F  1003               	clrc
  2682  0140  0DE1               	rlf	??_get_crc+4,f
  2683  0141  1003               	clrc
  2684  0142  0DE1               	rlf	??_get_crc+4,f
  2685  0143  1003               	clrc
  2686  0144  0D67               	rlf	get_crc@e,w
  2687  0145  0661               	xorwf	??_get_crc+4,w
  2688  0146  0660               	xorwf	??_get_crc+3,w
  2689  0147  065F               	xorwf	??_get_crc+2,w
  2690  0148  065E               	xorwf	??_get_crc+1,w
  2691  0149  065D               	xorwf	??_get_crc,w
  2692  014A  0662               	xorwf	get_crc@c0,w
  2693  014B  00E3               	movwf	get_crc@c1
  2694                           
  2695                           ;rx_ble.c: 51: c0 = e ^ ((e << 1) & 255) ^ ((e << 3) & 255) ^ ((e << 4) & 255) ^ ((e << 
      +                          6) & 255);
  2696  014C  0867               	movf	get_crc@e,w
  2697  014D  00DD               	movwf	??_get_crc
  2698  014E  3006               	movlw	6
  2699  014F                     u1445:	
  2700  014F  1003               	clrc
  2701  0150  0DDD               	rlf	??_get_crc,f
  2702  0151  3EFF               	addlw	-1
  2703  0152  1D03               	skipz
  2704  0153  294F               	goto	u1445
  2705  0154  0867               	movf	get_crc@e,w
  2706  0155  00DE               	movwf	??_get_crc+1
  2707  0156  0E5E               	swapf	??_get_crc+1,w
  2708  0157  39F0               	andlw	240
  2709  0158  00DE               	movwf	??_get_crc+1
  2710  0159  0867               	movf	get_crc@e,w
  2711  015A  00DF               	movwf	??_get_crc+2
  2712  015B  1003               	clrc
  2713  015C  0DDF               	rlf	??_get_crc+2,f
  2714  015D  1003               	clrc
  2715  015E  0DDF               	rlf	??_get_crc+2,f
  2716  015F  1003               	clrc
  2717  0160  0DDF               	rlf	??_get_crc+2,f
  2718  0161  1003               	clrc
  2719  0162  0D67               	rlf	get_crc@e,w
  2720  0163  065F               	xorwf	??_get_crc+2,w
  2721  0164  065E               	xorwf	??_get_crc+1,w
  2722  0165  065D               	xorwf	??_get_crc,w
  2723  0166  0667               	xorwf	get_crc@e,w
  2724  0167  00E2               	movwf	get_crc@c0
  2725  0168  0AE5               	incf	get_crc@i,f
  2726  0169  28F2               	goto	l5547
  2727  016A                     l5549:	
  2728                           
  2729                           ;rx_ble.c: 52: }
  2730                           ;rx_ble.c: 59: user_data_buf[lenth - 1] = roll_data(c0);
  2731  016A  0876               	movf	get_crc@lenth,w
  2732  016B  1283               	bcf	3,5	;RP0=0, select bank0
  2733  016C  1303               	bcf	3,6	;RP1=0, select bank0
  2734  016D  0766               	addwf	get_crc@user_data_buf,w
  2735  016E  00DD               	movwf	??_get_crc
  2736  016F  3EFF               	addlw	-1
  2737  0170  0084               	movwf	4
  2738  0171  0862               	movf	get_crc@c0,w
  2739  0172  23A0               	fcall	_roll_data
  2740  0173  1383               	bcf	3,7	;select IRP bank0
  2741  0174  0080               	movwf	0
  2742                           
  2743                           ;rx_ble.c: 60: user_data_buf[lenth - 2] = roll_data(c1);
  2744  0175  0876               	movf	get_crc@lenth,w
  2745  0176  0766               	addwf	get_crc@user_data_buf,w
  2746  0177  00DD               	movwf	??_get_crc
  2747  0178  3EFE               	addlw	-2
  2748  0179  0084               	movwf	4
  2749  017A  0863               	movf	get_crc@c1,w
  2750  017B  23A0               	fcall	_roll_data
  2751  017C  0080               	movwf	0
  2752                           
  2753                           ;rx_ble.c: 61: user_data_buf[lenth - 3] = roll_data(c2);
  2754  017D  0876               	movf	get_crc@lenth,w
  2755  017E  0766               	addwf	get_crc@user_data_buf,w
  2756  017F  00DD               	movwf	??_get_crc
  2757  0180  3EFD               	addlw	-3
  2758  0181  0084               	movwf	4
  2759  0182  0864               	movf	get_crc@c2,w
  2760  0183  23A0               	fcall	_roll_data
  2761  0184  0080               	movwf	0
  2762  0185  0008               	return
  2763  0186                     __end_of_get_crc:	
  2764                           
  2765                           	psect	text805
  2766  0452                     __ptext805:	
  2767 ;; =============== function _get_crc ends ============
  2768                           
  2769                           
  2770 ;; *************** function _LT_ReadBUF_ble *****************
  2771 ;; Defined at:
  2772 ;;		line 140 in file "lt89xxdrvspi.c"
  2773 ;; Parameters:    Size  Location     Type
  2774 ;;  reg             1    wreg     unsigned char 
  2775 ;;  pBuf            1    4[COMMON] PTR unsigned char 
  2776 ;;		 -> RXADVDATA(29), 
  2777 ;;  lenth           1    5[COMMON] unsigned char 
  2778 ;; Auto vars:     Size  Location     Type
  2779 ;;  reg             1    8[COMMON] unsigned char 
  2780 ;;  i               1    9[COMMON] unsigned char 
  2781 ;;  len             1    0        unsigned char 
  2782 ;; Return value:  Size  Location     Type
  2783 ;;                  1    wreg      unsigned char 
  2784 ;; Registers used:
  2785 ;;		wreg, fsr0l, fsr0h, status,2, status,0, pclath, cstack
  2786 ;; Tracked objects:
  2787 ;;		On entry : 60/0
  2788 ;;		On exit  : 60/0
  2789 ;;		Unchanged: FFE9F/0
  2790 ;; Data sizes:     COMMON   BANK0   BANK1
  2791 ;;      Params:         2       0       0
  2792 ;;      Locals:         3       0       0
  2793 ;;      Temps:          1       0       0
  2794 ;;      Totals:         6       0       0
  2795 ;;Total ram usage:        6 bytes
  2796 ;; Hardware stack levels used:    1
  2797 ;; Hardware stack levels required when called:    2
  2798 ;; This function calls:
  2799 ;;		_SPI_SendByte
  2800 ;;		_SPI_ReadByte
  2801 ;; This function is called by:
  2802 ;;		_ble_read_fifo
  2803 ;; This function uses a non-reentrant model
  2804 ;;
  2805  0452                     _LT_ReadBUF_ble:	
  2806                           
  2807                           ; Regs used in _LT_ReadBUF_ble: [wreg-fsr0h+status,2+status,0+pclath+cstack]
  2808                           ;LT_ReadBUF_ble@reg stored from wreg
  2809  0452  00F8               	movwf	LT_ReadBUF_ble@reg
  2810                           
  2811                           ;lt89xxdrvspi.c: 141: unsigned char i,len;
  2812                           ;lt89xxdrvspi.c: 143: RC2=0;
  2813  0453  1107               	bcf	7,2
  2814                           
  2815                           ;lt89xxdrvspi.c: 144: SPI_SendByte(reg|0X80);
  2816  0454  3880               	iorlw	128
  2817  0455  248F               	fcall	_SPI_SendByte
  2818  0456  2467               	fcall	_SPI_ReadByte
  2819                           
  2820                           ;lt89xxdrvspi.c: 146: for(i=0; i<lenth; i++)
  2821  0457  01F9               	clrf	LT_ReadBUF_ble@i
  2822  0458                     l5531:	
  2823  0458  0875               	movf	LT_ReadBUF_ble@lenth,w
  2824  0459  0279               	subwf	LT_ReadBUF_ble@i,w
  2825  045A  1803               	btfsc	3,0
  2826  045B  2C65               	goto	l2272
  2827                           
  2828                           ;lt89xxdrvspi.c: 147: {
  2829                           ;lt89xxdrvspi.c: 148: pBuf[i] = SPI_ReadByte();
  2830  045C  0879               	movf	LT_ReadBUF_ble@i,w
  2831  045D  0774               	addwf	LT_ReadBUF_ble@pBuf,w
  2832  045E  00F6               	movwf	??_LT_ReadBUF_ble
  2833  045F  0084               	movwf	4
  2834  0460  2467               	fcall	_SPI_ReadByte
  2835  0461  1383               	bcf	3,7	;select IRP bank0
  2836  0462  0080               	movwf	0
  2837  0463  0AF9               	incf	LT_ReadBUF_ble@i,f
  2838  0464  2C58               	goto	l5531
  2839  0465                     l2272:	
  2840                           
  2841                           ;lt89xxdrvspi.c: 149: }
  2842                           ;lt89xxdrvspi.c: 151: RC2=1;
  2843  0465  1507               	bsf	7,2
  2844                           
  2845                           ;lt89xxdrvspi.c: 153: return len;
  2846                           ;	Return value of _LT_ReadBUF_ble is never used
  2847  0466  0008               	return
  2848  0467                     __end_of_LT_ReadBUF_ble:	
  2849                           
  2850                           	psect	text806
  2851  03E6                     __ptext806:	
  2852 ;; =============== function _LT_ReadBUF_ble ends ============
  2853                           
  2854                           
  2855 ;; *************** function _LT_WriteBUF_ble *****************
  2856 ;; Defined at:
  2857 ;;		line 121 in file "lt89xxdrvspi.c"
  2858 ;; Parameters:    Size  Location     Type
  2859 ;;  reg             1    wreg     unsigned char 
  2860 ;;  pBuf            1    4[COMMON] PTR unsigned char 
  2861 ;;		 -> PDUDATA(26), 
  2862 ;;  len             1    5[COMMON] unsigned char 
  2863 ;; Auto vars:     Size  Location     Type
  2864 ;;  reg             1    7[COMMON] unsigned char 
  2865 ;;  i               1    8[COMMON] unsigned char 
  2866 ;; Return value:  Size  Location     Type
  2867 ;;		None               void
  2868 ;; Registers used:
  2869 ;;		wreg, fsr0l, fsr0h, status,2, status,0, pclath, cstack
  2870 ;; Tracked objects:
  2871 ;;		On entry : 60/0
  2872 ;;		On exit  : 60/0
  2873 ;;		Unchanged: FFE9F/0
  2874 ;; Data sizes:     COMMON   BANK0   BANK1
  2875 ;;      Params:         2       0       0
  2876 ;;      Locals:         2       0       0
  2877 ;;      Temps:          1       0       0
  2878 ;;      Totals:         5       0       0
  2879 ;;Total ram usage:        5 bytes
  2880 ;; Hardware stack levels used:    1
  2881 ;; Hardware stack levels required when called:    2
  2882 ;; This function calls:
  2883 ;;		_SPI_SendByte
  2884 ;; This function is called by:
  2885 ;;		_LT8920_write_ble_fifo
  2886 ;; This function uses a non-reentrant model
  2887 ;;
  2888  03E6                     _LT_WriteBUF_ble:	
  2889                           
  2890                           ; Regs used in _LT_WriteBUF_ble: [wreg-fsr0h+status,2+status,0+pclath+cstack]
  2891                           ;LT_WriteBUF_ble@reg stored from wreg
  2892  03E6  00F7               	movwf	LT_WriteBUF_ble@reg
  2893                           
  2894                           ;lt89xxdrvspi.c: 122: unsigned char i;
  2895                           ;lt89xxdrvspi.c: 124: RC2=0;
  2896  03E7  1107               	bcf	7,2
  2897                           
  2898                           ;lt89xxdrvspi.c: 125: SPI_SendByte(reg);
  2899  03E8  248F               	fcall	_SPI_SendByte
  2900                           
  2901                           ;lt89xxdrvspi.c: 126: SPI_SendByte(len+4);
  2902  03E9  0875               	movf	LT_WriteBUF_ble@len,w
  2903  03EA  3E04               	addlw	4
  2904  03EB  248F               	fcall	_SPI_SendByte
  2905                           
  2906                           ;lt89xxdrvspi.c: 127: SPI_SendByte(0xd6);
  2907  03EC  30D6               	movlw	214
  2908  03ED  248F               	fcall	_SPI_SendByte
  2909                           
  2910                           ;lt89xxdrvspi.c: 128: SPI_SendByte(0xbe);
  2911  03EE  30BE               	movlw	190
  2912  03EF  248F               	fcall	_SPI_SendByte
  2913                           
  2914                           ;lt89xxdrvspi.c: 129: SPI_SendByte(0x89);
  2915  03F0  3089               	movlw	137
  2916  03F1  248F               	fcall	_SPI_SendByte
  2917                           
  2918                           ;lt89xxdrvspi.c: 130: SPI_SendByte(0x8e);
  2919  03F2  308E               	movlw	142
  2920  03F3  248F               	fcall	_SPI_SendByte
  2921                           
  2922                           ;lt89xxdrvspi.c: 132: for(i=0; i<len; i++)
  2923  03F4  01F8               	clrf	LT_WriteBUF_ble@i
  2924  03F5                     l5519:	
  2925  03F5  0875               	movf	LT_WriteBUF_ble@len,w
  2926  03F6  0278               	subwf	LT_WriteBUF_ble@i,w
  2927  03F7  1803               	btfsc	3,0
  2928  03F8  2C02               	goto	l2266
  2929                           
  2930                           ;lt89xxdrvspi.c: 133: SPI_SendByte(pBuf[i]);
  2931  03F9  0878               	movf	LT_WriteBUF_ble@i,w
  2932  03FA  0774               	addwf	LT_WriteBUF_ble@pBuf,w
  2933  03FB  00F6               	movwf	??_LT_WriteBUF_ble
  2934  03FC  0084               	movwf	4
  2935  03FD  1383               	bcf	3,7	;select IRP bank0
  2936  03FE  0800               	movf	0,w
  2937  03FF  248F               	fcall	_SPI_SendByte
  2938  0400  0AF8               	incf	LT_WriteBUF_ble@i,f
  2939  0401  2BF5               	goto	l5519
  2940  0402                     l2266:	
  2941                           
  2942                           ;lt89xxdrvspi.c: 136: RC2=1;
  2943  0402  1507               	bsf	7,2
  2944  0403  0008               	return
  2945  0404                     __end_of_LT_WriteBUF_ble:	
  2946                           
  2947                           	psect	text807
  2948  04FE                     __ptext807:	
  2949 ;; =============== function _LT_WriteBUF_ble ends ============
  2950                           
  2951                           
  2952 ;; *************** function _LT_WriteReg *****************
  2953 ;; Defined at:
  2954 ;;		line 78 in file "lt89xxdrvspi.c"
  2955 ;; Parameters:    Size  Location     Type
  2956 ;;  reg             1    wreg     unsigned char 
  2957 ;;  H               1    4[COMMON] unsigned char 
  2958 ;;  L               1    5[COMMON] unsigned char 
  2959 ;; Auto vars:     Size  Location     Type
  2960 ;;  reg             1    6[COMMON] unsigned char 
  2961 ;; Return value:  Size  Location     Type
  2962 ;;		None               void
  2963 ;; Registers used:
  2964 ;;		wreg, status,2, status,0, pclath, cstack
  2965 ;; Tracked objects:
  2966 ;;		On entry : 40/0
  2967 ;;		On exit  : 60/0
  2968 ;;		Unchanged: FFF9F/0
  2969 ;; Data sizes:     COMMON   BANK0   BANK1
  2970 ;;      Params:         2       0       0
  2971 ;;      Locals:         1       0       0
  2972 ;;      Temps:          0       0       0
  2973 ;;      Totals:         3       0       0
  2974 ;;Total ram usage:        3 bytes
  2975 ;; Hardware stack levels used:    1
  2976 ;; Hardware stack levels required when called:    2
  2977 ;; This function calls:
  2978 ;;		_SPI_SendByte
  2979 ;; This function is called by:
  2980 ;;		_LT89XX_INIT
  2981 ;;		_LT89xx_ModeSet
  2982 ;;		_LT8920_ble_write_reg
  2983 ;; This function uses a non-reentrant model
  2984 ;;
  2985  04FE                     _LT_WriteReg:	
  2986                           
  2987                           ; Regs used in _LT_WriteReg: [wreg+status,2+status,0+pclath+cstack]
  2988                           ;LT_WriteReg@reg stored from wreg
  2989  04FE  00F6               	movwf	LT_WriteReg@reg
  2990                           
  2991                           ;lt89xxdrvspi.c: 79: RC2=0;
  2992  04FF  1283               	bcf	3,5	;RP0=0, select bank0
  2993  0500  1107               	bcf	7,2
  2994                           
  2995                           ;lt89xxdrvspi.c: 80: SPI_SendByte(reg);
  2996  0501  0876               	movf	LT_WriteReg@reg,w
  2997  0502  248F               	fcall	_SPI_SendByte
  2998                           
  2999                           ;lt89xxdrvspi.c: 81: SPI_SendByte(H);
  3000  0503  0874               	movf	LT_WriteReg@H,w
  3001  0504  248F               	fcall	_SPI_SendByte
  3002                           
  3003                           ;lt89xxdrvspi.c: 82: SPI_SendByte(L);
  3004  0505  0875               	movf	LT_WriteReg@L,w
  3005  0506  248F               	fcall	_SPI_SendByte
  3006                           
  3007                           ;lt89xxdrvspi.c: 83: RC2=1;
  3008  0507  1507               	bsf	7,2
  3009  0508  0008               	return
  3010  0509                     __end_of_LT_WriteReg:	
  3011                           
  3012                           	psect	text808
  3013  0509                     __ptext808:	
  3014 ;; =============== function _LT_WriteReg ends ============
  3015                           
  3016                           
  3017 ;; *************** function _LT_ReadReg *****************
  3018 ;; Defined at:
  3019 ;;		line 68 in file "lt89xxdrvspi.c"
  3020 ;; Parameters:    Size  Location     Type
  3021 ;;  reg             1    wreg     unsigned char 
  3022 ;; Auto vars:     Size  Location     Type
  3023 ;;  reg             1    4[COMMON] unsigned char 
  3024 ;; Return value:  Size  Location     Type
  3025 ;;		None               void
  3026 ;; Registers used:
  3027 ;;		wreg, status,2, status,0, pclath, cstack
  3028 ;; Tracked objects:
  3029 ;;		On entry : 60/0
  3030 ;;		On exit  : 60/0
  3031 ;;		Unchanged: FFF9F/0
  3032 ;; Data sizes:     COMMON   BANK0   BANK1
  3033 ;;      Params:         0       0       0
  3034 ;;      Locals:         1       0       0
  3035 ;;      Temps:          0       0       0
  3036 ;;      Totals:         1       0       0
  3037 ;;Total ram usage:        1 bytes
  3038 ;; Hardware stack levels used:    1
  3039 ;; Hardware stack levels required when called:    2
  3040 ;; This function calls:
  3041 ;;		_SPI_SendByte
  3042 ;;		_SPI_ReadByte
  3043 ;; This function is called by:
  3044 ;;		_ble_chanel_scan
  3045 ;;		_LT89XX_INIT
  3046 ;; This function uses a non-reentrant model
  3047 ;;
  3048  0509                     _LT_ReadReg:	
  3049                           
  3050                           ; Regs used in _LT_ReadReg: [wreg+status,2+status,0+pclath+cstack]
  3051                           ;LT_ReadReg@reg stored from wreg
  3052  0509  00F4               	movwf	LT_ReadReg@reg
  3053                           
  3054                           ;lt89xxdrvspi.c: 69: RC2=0;
  3055  050A  1107               	bcf	7,2
  3056                           
  3057                           ;lt89xxdrvspi.c: 70: SPI_SendByte(reg|0x80);
  3058  050B  3880               	iorlw	128
  3059  050C  248F               	fcall	_SPI_SendByte
  3060                           
  3061                           ;lt89xxdrvspi.c: 71: RegH=SPI_ReadByte();
  3062  050D  2467               	fcall	_SPI_ReadByte
  3063  050E  00FB               	movwf	_RegH
  3064                           
  3065                           ;lt89xxdrvspi.c: 72: RegL=SPI_ReadByte();
  3066  050F  2467               	fcall	_SPI_ReadByte
  3067  0510  00A3               	movwf	_RegL
  3068                           
  3069                           ;lt89xxdrvspi.c: 73: RC2=1;
  3070  0511  1507               	bsf	7,2
  3071  0512  0008               	return
  3072  0513                     __end_of_LT_ReadReg:	
  3073                           
  3074                           	psect	text809
  3075  021B                     __ptext809:	
  3076 ;; =============== function _LT_ReadReg ends ============
  3077                           
  3078                           
  3079 ;; *************** function _LT8920_ble_to_localdata *****************
  3080 ;; Defined at:
  3081 ;;		line 124 in file "rx_ble.c"
  3082 ;; Parameters:    Size  Location     Type
  3083 ;;  chanel          1    wreg     unsigned char 
  3084 ;;  ADVDATA         1    2[COMMON] PTR unsigned char 
  3085 ;;		 -> RXADVDATA(29), 
  3086 ;;  len             1    3[COMMON] unsigned char 
  3087 ;;  adv_offset      1    4[COMMON] unsigned char 
  3088 ;; Auto vars:     Size  Location     Type
  3089 ;;  chanel          1    0[BANK0 ] unsigned char 
  3090 ;;  i               1    1[BANK0 ] unsigned char 
  3091 ;; Return value:  Size  Location     Type
  3092 ;;		None               void
  3093 ;; Registers used:
  3094 ;;		wreg, fsr0l, fsr0h, status,2, status,0, pclath
  3095 ;; Tracked objects:
  3096 ;;		On entry : 60/0
  3097 ;;		On exit  : 60/0
  3098 ;;		Unchanged: FFE9F/0
  3099 ;; Data sizes:     COMMON   BANK0   BANK1
  3100 ;;      Params:         3       0       0
  3101 ;;      Locals:         0       2       0
  3102 ;;      Temps:          5       0       0
  3103 ;;      Totals:         8       2       0
  3104 ;;Total ram usage:       10 bytes
  3105 ;; Hardware stack levels used:    2
  3106 ;; Hardware stack levels required when called:    1
  3107 ;; This function calls:
  3108 ;;		Nothing
  3109 ;; This function is called by:
  3110 ;;		_LT8920_read_ble_fifo
  3111 ;; This function uses a non-reentrant model
  3112 ;;
  3113  021B                     _LT8920_ble_to_localdata:	
  3114                           
  3115                           ; Regs used in _LT8920_ble_to_localdata: [wreg-fsr0h+status,2+status,0+pclath]
  3116                           ;LT8920_ble_to_localdata@chanel stored from wreg
  3117  021B  00DD               	movwf	LT8920_ble_to_localdata@chanel
  3118                           
  3119                           ;rx_ble.c: 126: unsigned char i;
  3120                           ;rx_ble.c: 128: if(chanel == 37)
  3121  021C  3A25               	xorlw	37
  3122  021D  1D03               	skipz
  3123  021E  2A29               	goto	l5477
  3124                           
  3125                           ;rx_ble.c: 129: {
  3126                           ;rx_ble.c: 130: for(i = 0; i < len; i++)
  3127  021F  01DE               	clrf	LT8920_ble_to_localdata@i
  3128  0220                     l5475:	
  3129  0220  0873               	movf	LT8920_ble_to_localdata@len,w
  3130  0221  025E               	subwf	LT8920_ble_to_localdata@i,w
  3131  0222  1803               	btfsc	3,0
  3132  0223  0008               	return
  3133                           
  3134                           ;rx_ble.c: 131: {
  3135                           ;rx_ble.c: 132: ADVDATA[i] = ADVDATA[i] ^ WHITE_INDEX37[i + adv_offset];
  3136  0224  3067               	movlw	(_WHITE_INDEX37-__stringbase)& (0+255)
  3137  0225  2256               	fcall	PL6	;call to abstracted procedure
  3138  0226  200B               	fcall	stringdir
  3139  0227  2245               	fcall	PL3	;call to abstracted procedure
  3140  0228  2A20               	goto	l5475
  3141  0229                     l5477:	
  3142                           
  3143                           ;rx_ble.c: 138: else if(chanel == 38)
  3144  0229  085D               	movf	LT8920_ble_to_localdata@chanel,w
  3145  022A  3A26               	xorlw	38
  3146  022B  1D03               	skipz
  3147  022C  2A37               	goto	l5487
  3148                           
  3149                           ;rx_ble.c: 139: {
  3150                           ;rx_ble.c: 140: for(i = 0; i < len; i++)
  3151  022D  01DE               	clrf	LT8920_ble_to_localdata@i
  3152  022E                     l5485:	
  3153  022E  0873               	movf	LT8920_ble_to_localdata@len,w
  3154  022F  025E               	subwf	LT8920_ble_to_localdata@i,w
  3155  0230  1803               	btfsc	3,0
  3156  0231  0008               	return
  3157                           
  3158                           ;rx_ble.c: 141: {
  3159                           ;rx_ble.c: 142: ADVDATA[i] = ADVDATA[i] ^ WHITE_INDEX38[i + adv_offset];
  3160  0232  308E               	movlw	(_WHITE_INDEX38-__stringbase)& (0+255)
  3161  0233  2256               	fcall	PL6	;call to abstracted procedure
  3162  0234  200B               	fcall	stringdir
  3163  0235  2245               	fcall	PL3	;call to abstracted procedure
  3164  0236  2A2E               	goto	l5485
  3165  0237                     l5487:	
  3166                           
  3167                           ;rx_ble.c: 147: else if(chanel == 39)
  3168  0237  085D               	movf	LT8920_ble_to_localdata@chanel,w
  3169  0238  3A27               	xorlw	39
  3170  0239  1D03               	skipz
  3171  023A  0008               	return
  3172                           
  3173                           ;rx_ble.c: 148: {
  3174                           ;rx_ble.c: 149: for(i = 0; i < len; i++)
  3175  023B  01DE               	clrf	LT8920_ble_to_localdata@i
  3176  023C                     l5495:	
  3177  023C  0873               	movf	LT8920_ble_to_localdata@len,w
  3178  023D  025E               	subwf	LT8920_ble_to_localdata@i,w
  3179  023E  1803               	btfsc	3,0
  3180  023F  0008               	return
  3181                           
  3182                           ;rx_ble.c: 150: {
  3183                           ;rx_ble.c: 151: ADVDATA[i] = ADVDATA[i] ^ WHITE_INDEX39[i + adv_offset];
  3184  0240  30B5               	movlw	(_WHITE_INDEX39-__stringbase)& (0+255)
  3185  0241  2256               	fcall	PL6	;call to abstracted procedure
  3186  0242  200B               	fcall	stringdir
  3187  0243  2245               	fcall	PL3	;call to abstracted procedure
  3188  0244  2A3C               	goto	l5495
  3189  0245                     __end_of_LT8920_ble_to_localdata:	
  3190  0245                     PL3:	
  3191  0245  00F6               	movwf	??_LT8920_ble_to_localdata+1
  3192  0246  085E               	movf	LT8920_ble_to_localdata@i,w
  3193  0247  0772               	addwf	LT8920_ble_to_localdata@ADVDATA,w
  3194  0248  00F7               	movwf	??_LT8920_ble_to_localdata+2
  3195  0249  0084               	movwf	4
  3196  024A  1383               	bcf	3,7	;select IRP bank0
  3197  024B  0800               	movf	0,w
  3198  024C  0676               	xorwf	??_LT8920_ble_to_localdata+1,w
  3199  024D  00F8               	movwf	??_LT8920_ble_to_localdata+3
  3200  024E  085E               	movf	LT8920_ble_to_localdata@i,w
  3201  024F  0772               	addwf	LT8920_ble_to_localdata@ADVDATA,w
  3202  0250  00F9               	movwf	??_LT8920_ble_to_localdata+4
  3203  0251  0084               	movwf	4
  3204  0252  0878               	movf	??_LT8920_ble_to_localdata+3,w
  3205  0253  0080               	movwf	0
  3206  0254  0ADE               	incf	LT8920_ble_to_localdata@i,f
  3207  0255  0008               	return
  3208  0256                     PL6:	
  3209  0256  0774               	addwf	LT8920_ble_to_localdata@adv_offset,w
  3210  0257  00F5               	movwf	??_LT8920_ble_to_localdata
  3211  0258  085E               	movf	LT8920_ble_to_localdata@i,w
  3212  0259  0775               	addwf	??_LT8920_ble_to_localdata,w
  3213  025A  0084               	movwf	4
  3214  025B  0008               	return
  3215                           
  3216                           	psect	text810
  3217  025C                     __ptext810:	
  3218 ;; =============== function _LT8920_ble_to_localdata ends ============
  3219                           
  3220                           
  3221 ;; *************** function _LT8920_pdudata_white *****************
  3222 ;; Defined at:
  3223 ;;		line 72 in file "rx_ble.c"
  3224 ;; Parameters:    Size  Location     Type
  3225 ;;  chanel          1    wreg     unsigned char 
  3226 ;;  PDUDATA         1    2[COMMON] PTR unsigned char 
  3227 ;;		 -> PDUDATA(26), 
  3228 ;;  len             1    3[COMMON] unsigned char 
  3229 ;; Auto vars:     Size  Location     Type
  3230 ;;  chanel          1    8[COMMON] unsigned char 
  3231 ;;  i               1    9[COMMON] unsigned char 
  3232 ;; Return value:  Size  Location     Type
  3233 ;;		None               void
  3234 ;; Registers used:
  3235 ;;		wreg, fsr0l, fsr0h, status,2, status,0, pclath
  3236 ;; Tracked objects:
  3237 ;;		On entry : 60/0
  3238 ;;		On exit  : 60/0
  3239 ;;		Unchanged: FFE9F/0
  3240 ;; Data sizes:     COMMON   BANK0   BANK1
  3241 ;;      Params:         2       0       0
  3242 ;;      Locals:         2       0       0
  3243 ;;      Temps:          4       0       0
  3244 ;;      Totals:         8       0       0
  3245 ;;Total ram usage:        8 bytes
  3246 ;; Hardware stack levels used:    2
  3247 ;; Hardware stack levels required when called:    1
  3248 ;; This function calls:
  3249 ;;		Nothing
  3250 ;; This function is called by:
  3251 ;;		_LT8920_ble_tx_start
  3252 ;; This function uses a non-reentrant model
  3253 ;;
  3254  025C                     _LT8920_pdudata_white:	
  3255                           
  3256                           ; Regs used in _LT8920_pdudata_white: [wreg-fsr0h+status,2+status,0+pclath]
  3257                           ;LT8920_pdudata_white@chanel stored from wreg
  3258  025C  00F8               	movwf	LT8920_pdudata_white@chanel
  3259                           
  3260                           ;rx_ble.c: 78: unsigned char i;
  3261                           ;rx_ble.c: 80: if(chanel == 37)
  3262  025D  3A25               	xorlw	37
  3263  025E  1D03               	skipz
  3264  025F  2A6B               	goto	l5103
  3265                           
  3266                           ;rx_ble.c: 81: {
  3267                           ;rx_ble.c: 82: for(i = 0; i < len; i++)
  3268  0260  01F9               	clrf	LT8920_pdudata_white@i
  3269  0261                     l5101:	
  3270  0261  0873               	movf	LT8920_pdudata_white@len,w
  3271  0262  0279               	subwf	LT8920_pdudata_white@i,w
  3272  0263  1803               	btfsc	3,0
  3273  0264  0008               	return
  3274                           
  3275                           ;rx_ble.c: 83: {
  3276                           ;rx_ble.c: 84: PDUDATA[i] = PDUDATA[i] ^ WHITE_INDEX37[i];
  3277  0265  0879               	movf	LT8920_pdudata_white@i,w
  3278  0266  3E67               	addlw	low (_WHITE_INDEX37-__stringbase)
  3279  0267  0084               	movwf	4
  3280  0268  200B               	fcall	stringdir
  3281  0269  2289               	fcall	PL2	;call to abstracted procedure
  3282  026A  2A61               	goto	l5101
  3283  026B                     l5103:	
  3284                           
  3285                           ;rx_ble.c: 88: else if(chanel == 38)
  3286  026B  0878               	movf	LT8920_pdudata_white@chanel,w
  3287  026C  3A26               	xorlw	38
  3288  026D  1D03               	skipz
  3289  026E  2A7A               	goto	l5113
  3290                           
  3291                           ;rx_ble.c: 89: {
  3292                           ;rx_ble.c: 90: for(i = 0; i < len; i++)
  3293  026F  01F9               	clrf	LT8920_pdudata_white@i
  3294  0270                     l5111:	
  3295  0270  0873               	movf	LT8920_pdudata_white@len,w
  3296  0271  0279               	subwf	LT8920_pdudata_white@i,w
  3297  0272  1803               	btfsc	3,0
  3298  0273  0008               	return
  3299                           
  3300                           ;rx_ble.c: 91: {
  3301                           ;rx_ble.c: 92: PDUDATA[i] = PDUDATA[i] ^ WHITE_INDEX38[i];
  3302  0274  0879               	movf	LT8920_pdudata_white@i,w
  3303  0275  3E8E               	addlw	low (_WHITE_INDEX38-__stringbase)
  3304  0276  0084               	movwf	4
  3305  0277  200B               	fcall	stringdir
  3306  0278  2289               	fcall	PL2	;call to abstracted procedure
  3307  0279  2A70               	goto	l5111
  3308  027A                     l5113:	
  3309                           
  3310                           ;rx_ble.c: 96: else if(chanel == 39)
  3311  027A  0878               	movf	LT8920_pdudata_white@chanel,w
  3312  027B  3A27               	xorlw	39
  3313  027C  1D03               	skipz
  3314  027D  0008               	return
  3315                           
  3316                           ;rx_ble.c: 97: {
  3317                           ;rx_ble.c: 98: for(i = 0; i < len; i++)
  3318  027E  01F9               	clrf	LT8920_pdudata_white@i
  3319  027F                     l5121:	
  3320  027F  0873               	movf	LT8920_pdudata_white@len,w
  3321  0280  0279               	subwf	LT8920_pdudata_white@i,w
  3322  0281  1803               	btfsc	3,0
  3323  0282  0008               	return
  3324                           
  3325                           ;rx_ble.c: 99: {
  3326                           ;rx_ble.c: 100: PDUDATA[i] = PDUDATA[i] ^ WHITE_INDEX39[i];
  3327  0283  0879               	movf	LT8920_pdudata_white@i,w
  3328  0284  3EB5               	addlw	low (_WHITE_INDEX39-__stringbase)
  3329  0285  0084               	movwf	4
  3330  0286  200B               	fcall	stringdir
  3331  0287  2289               	fcall	PL2	;call to abstracted procedure
  3332  0288  2A7F               	goto	l5121
  3333  0289                     __end_of_LT8920_pdudata_white:	
  3334  0289                     PL2:	
  3335  0289  00F4               	movwf	??_LT8920_pdudata_white
  3336  028A  0879               	movf	LT8920_pdudata_white@i,w
  3337  028B  0772               	addwf	LT8920_pdudata_white@PDUDATA,w
  3338  028C  00F5               	movwf	??_LT8920_pdudata_white+1
  3339  028D  0084               	movwf	4
  3340  028E  1383               	bcf	3,7	;select IRP bank0
  3341  028F  0800               	movf	0,w
  3342  0290  0674               	xorwf	??_LT8920_pdudata_white,w
  3343  0291  00F6               	movwf	??_LT8920_pdudata_white+2
  3344  0292  0879               	movf	LT8920_pdudata_white@i,w
  3345  0293  0772               	addwf	LT8920_pdudata_white@PDUDATA,w
  3346  0294  00F7               	movwf	??_LT8920_pdudata_white+3
  3347  0295  0084               	movwf	4
  3348  0296  0876               	movf	??_LT8920_pdudata_white+2,w
  3349  0297  0080               	movwf	0
  3350  0298  0AF9               	incf	LT8920_pdudata_white@i,f
  3351  0299  0008               	return
  3352                           
  3353                           	psect	text811
  3354  03A0                     __ptext811:	
  3355 ;; =============== function _LT8920_pdudata_white ends ============
  3356                           
  3357                           
  3358 ;; *************** function _roll_data *****************
  3359 ;; Defined at:
  3360 ;;		line 17 in file "rx_ble.c"
  3361 ;; Parameters:    Size  Location     Type
  3362 ;;  roll_in         1    wreg     unsigned char 
  3363 ;; Auto vars:     Size  Location     Type
  3364 ;;  roll_in         1    3[COMMON] unsigned char 
  3365 ;;  i               1    5[COMMON] unsigned char 
  3366 ;;  roll_out        1    4[COMMON] unsigned char 
  3367 ;; Return value:  Size  Location     Type
  3368 ;;                  1    wreg      unsigned char 
  3369 ;; Registers used:
  3370 ;;		wreg, status,2, status,0
  3371 ;; Tracked objects:
  3372 ;;		On entry : 60/0
  3373 ;;		On exit  : 60/0
  3374 ;;		Unchanged: FFF9F/0
  3375 ;; Data sizes:     COMMON   BANK0   BANK1
  3376 ;;      Params:         0       0       0
  3377 ;;      Locals:         3       0       0
  3378 ;;      Temps:          1       0       0
  3379 ;;      Totals:         4       0       0
  3380 ;;Total ram usage:        4 bytes
  3381 ;; Hardware stack levels used:    1
  3382 ;; Hardware stack levels required when called:    1
  3383 ;; This function calls:
  3384 ;;		Nothing
  3385 ;; This function is called by:
  3386 ;;		_get_crc
  3387 ;; This function uses a non-reentrant model
  3388 ;;
  3389  03A0                     _roll_data:	
  3390                           
  3391                           ; Regs used in _roll_data: [wreg+status,2+status,0]
  3392                           ;roll_data@roll_in stored from wreg
  3393  03A0  00F3               	movwf	roll_data@roll_in
  3394                           
  3395                           ;rx_ble.c: 18: unsigned char i, roll_out = 0;
  3396  03A1  01F4               	clrf	roll_data@roll_out
  3397                           
  3398                           ;rx_ble.c: 20: for(i = 0; i < 8; i++)
  3399  03A2  01F5               	clrf	roll_data@i
  3400  03A3                     l5083:	
  3401                           
  3402                           ;rx_ble.c: 21: {
  3403                           ;rx_ble.c: 22: if(roll_in & (1 << i)) roll_out |= 1 << (7 - i);
  3404  03A3  3001               	movlw	1
  3405  03A4  00F2               	movwf	??_roll_data
  3406  03A5  0A75               	incf	roll_data@i,w
  3407  03A6  2BA9               	goto	u744
  3408  03A7                     u745:	
  3409  03A7  1003               	clrc
  3410  03A8  0DF2               	rlf	??_roll_data,f
  3411  03A9                     u744:	
  3412  03A9  3EFF               	addlw	-1
  3413  03AA  1D03               	skipz
  3414  03AB  2BA7               	goto	u745
  3415  03AC  0872               	movf	??_roll_data,w
  3416  03AD  0573               	andwf	roll_data@roll_in,w
  3417  03AE  1903               	btfsc	3,2
  3418  03AF  2BBD               	goto	l5087
  3419  03B0  3001               	movlw	1
  3420  03B1  00F2               	movwf	??_roll_data
  3421  03B2  0875               	movf	roll_data@i,w
  3422  03B3  3C07               	sublw	7
  3423  03B4  3E01               	addlw	1
  3424  03B5  2BB8               	goto	u764
  3425  03B6                     u765:	
  3426  03B6  1003               	clrc
  3427  03B7  0DF2               	rlf	??_roll_data,f
  3428  03B8                     u764:	
  3429  03B8  3EFF               	addlw	-1
  3430  03B9  1D03               	skipz
  3431  03BA  2BB6               	goto	u765
  3432  03BB  0872               	movf	??_roll_data,w
  3433  03BC  04F4               	iorwf	roll_data@roll_out,f
  3434  03BD                     l5087:	
  3435  03BD  3008               	movlw	8
  3436  03BE  0AF5               	incf	roll_data@i,f
  3437  03BF  0275               	subwf	roll_data@i,w
  3438  03C0  1C03               	skipc
  3439  03C1  2BA3               	goto	l5083
  3440                           
  3441                           ;rx_ble.c: 23: }
  3442                           ;rx_ble.c: 24: return roll_out;
  3443  03C2  0874               	movf	roll_data@roll_out,w
  3444  03C3  0008               	return
  3445  03C4                     __end_of_roll_data:	
  3446                           
  3447                           	psect	text812
  3448  0467                     __ptext812:	
  3449 ;; =============== function _roll_data ends ============
  3450                           
  3451                           
  3452 ;; *************** function _SPI_ReadByte *****************
  3453 ;; Defined at:
  3454 ;;		line 44 in file "lt89xxdrvspi.c"
  3455 ;; Parameters:    Size  Location     Type
  3456 ;;		None
  3457 ;; Auto vars:     Size  Location     Type
  3458 ;;  mcnt            1    3[COMMON] unsigned char 
  3459 ;;  retvalue        1    2[COMMON] unsigned char 
  3460 ;; Return value:  Size  Location     Type
  3461 ;;                  1    wreg      unsigned char 
  3462 ;; Registers used:
  3463 ;;		wreg, status,2, status,0
  3464 ;; Tracked objects:
  3465 ;;		On entry : 60/0
  3466 ;;		On exit  : 60/0
  3467 ;;		Unchanged: FFF9F/0
  3468 ;; Data sizes:     COMMON   BANK0   BANK1
  3469 ;;      Params:         0       0       0
  3470 ;;      Locals:         2       0       0
  3471 ;;      Temps:          0       0       0
  3472 ;;      Totals:         2       0       0
  3473 ;;Total ram usage:        2 bytes
  3474 ;; Hardware stack levels used:    1
  3475 ;; Hardware stack levels required when called:    1
  3476 ;; This function calls:
  3477 ;;		Nothing
  3478 ;; This function is called by:
  3479 ;;		_LT_ReadReg
  3480 ;;		_LT_ReadBUF_ble
  3481 ;; This function uses a non-reentrant model
  3482 ;;
  3483  0467                     _SPI_ReadByte:	
  3484                           
  3485                           ;lt89xxdrvspi.c: 45: unsigned char retvalue=0;
  3486                           
  3487                           ; Regs used in _SPI_ReadByte: [wreg+status,2+status,0]
  3488  0467  01F2               	clrf	SPI_ReadByte@retvalue
  3489                           
  3490                           ;lt89xxdrvspi.c: 46: unsigned char mcnt;
  3491                           ;lt89xxdrvspi.c: 47: RC3=0;
  3492  0468  1187               	bcf	7,3
  3493                           
  3494                           ;lt89xxdrvspi.c: 48: for (mcnt=0;mcnt<8;mcnt++)
  3495  0469  01F3               	clrf	SPI_ReadByte@mcnt
  3496  046A                     l2239:	
  3497                           
  3498                           ;lt89xxdrvspi.c: 49: {
  3499                           ;lt89xxdrvspi.c: 50: RC3=1;
  3500  046A  1587               	bsf	7,3
  3501                           
  3502                           ;lt89xxdrvspi.c: 52: retvalue<<=1;
  3503  046B  1003               	clrc
  3504  046C  0DF2               	rlf	SPI_ReadByte@retvalue,f
  3505                           
  3506                           ;lt89xxdrvspi.c: 53: RC3=0;
  3507  046D  1187               	bcf	7,3
  3508                           
  3509                           ;lt89xxdrvspi.c: 56: if(RA6) retvalue|=1;
  3510  046E  1F05               	btfss	5,6
  3511  046F  2C72               	goto	l2241
  3512  0470  1472               	bsf	SPI_ReadByte@retvalue,0
  3513  0471  2C73               	goto	l5459
  3514  0472                     l2241:	
  3515                           
  3516                           ;lt89xxdrvspi.c: 57: else retvalue&=0xfe;
  3517  0472  1072               	bcf	SPI_ReadByte@retvalue,0
  3518  0473                     l5459:	
  3519  0473  3008               	movlw	8
  3520  0474  0AF3               	incf	SPI_ReadByte@mcnt,f
  3521  0475  0273               	subwf	SPI_ReadByte@mcnt,w
  3522  0476  1C03               	skipc
  3523  0477  2C6A               	goto	l2239
  3524                           
  3525                           ;lt89xxdrvspi.c: 59: }
  3526                           ;lt89xxdrvspi.c: 60: RC3=0;
  3527  0478  1187               	bcf	7,3
  3528                           
  3529                           ;lt89xxdrvspi.c: 61: return retvalue;
  3530  0479  0872               	movf	SPI_ReadByte@retvalue,w
  3531  047A  0008               	return
  3532  047B                     __end_of_SPI_ReadByte:	
  3533                           
  3534                           	psect	text813
  3535  048F                     __ptext813:	
  3536 ;; =============== function _SPI_ReadByte ends ============
  3537                           
  3538                           
  3539 ;; *************** function _SPI_SendByte *****************
  3540 ;; Defined at:
  3541 ;;		line 24 in file "lt89xxdrvspi.c"
  3542 ;; Parameters:    Size  Location     Type
  3543 ;;  buf             1    wreg     unsigned char 
  3544 ;; Auto vars:     Size  Location     Type
  3545 ;;  buf             1    2[COMMON] unsigned char 
  3546 ;;  mcnt            1    3[COMMON] unsigned char 
  3547 ;; Return value:  Size  Location     Type
  3548 ;;		None               void
  3549 ;; Registers used:
  3550 ;;		wreg, status,2, status,0
  3551 ;; Tracked objects:
  3552 ;;		On entry : 60/0
  3553 ;;		On exit  : 60/0
  3554 ;;		Unchanged: FFF9F/0
  3555 ;; Data sizes:     COMMON   BANK0   BANK1
  3556 ;;      Params:         0       0       0
  3557 ;;      Locals:         2       0       0
  3558 ;;      Temps:          0       0       0
  3559 ;;      Totals:         2       0       0
  3560 ;;Total ram usage:        2 bytes
  3561 ;; Hardware stack levels used:    1
  3562 ;; Hardware stack levels required when called:    1
  3563 ;; This function calls:
  3564 ;;		Nothing
  3565 ;; This function is called by:
  3566 ;;		_LT_ReadReg
  3567 ;;		_LT_WriteReg
  3568 ;;		_LT_WriteBUF_ble
  3569 ;;		_LT_ReadBUF_ble
  3570 ;; This function uses a non-reentrant model
  3571 ;;
  3572  048F                     _SPI_SendByte:	
  3573                           
  3574                           ; Regs used in _SPI_SendByte: [wreg+status,2+status,0]
  3575                           ;SPI_SendByte@buf stored from wreg
  3576  048F  00F2               	movwf	SPI_SendByte@buf
  3577                           
  3578                           ;lt89xxdrvspi.c: 25: unsigned char mcnt;
  3579                           ;lt89xxdrvspi.c: 26: for(mcnt=0;mcnt<8;mcnt++)
  3580  0490  01F3               	clrf	SPI_SendByte@mcnt
  3581                           
  3582                           ;lt89xxdrvspi.c: 27: {
  3583                           ;lt89xxdrvspi.c: 28: RC3=0;
  3584  0491  1187               	bcf	7,3
  3585  0492                     L3:	
  3586                           
  3587                           ;lt89xxdrvspi.c: 30: if(buf&0x80) RA5=1;
  3588  0492  1FF2               	btfss	SPI_SendByte@buf,7
  3589  0493  2C96               	goto	l2234
  3590  0494  1685               	bsf	5,5
  3591  0495  2C97               	goto	l2235
  3592  0496                     l2234:	
  3593                           
  3594                           ;lt89xxdrvspi.c: 31: else RA5=0;
  3595  0496  1285               	bcf	5,5
  3596  0497                     l2235:	
  3597  0497  3008               	movlw	8
  3598                           
  3599                           ;lt89xxdrvspi.c: 33: RC3=1;
  3600  0498  1587               	bsf	7,3
  3601                           
  3602                           ;lt89xxdrvspi.c: 35: buf<<=1;
  3603  0499  1003               	clrc
  3604  049A  0DF2               	rlf	SPI_SendByte@buf,f
  3605  049B  0AF3               	incf	SPI_SendByte@mcnt,f
  3606  049C  0273               	subwf	SPI_SendByte@mcnt,w
  3607                           
  3608                           ;lt89xxdrvspi.c: 37: }
  3609                           ;lt89xxdrvspi.c: 38: RC3=0;
  3610  049D  1187               	bcf	7,3
  3611  049E  1C03               	skipc
  3612  049F  2C92               	goto	L3
  3613                           
  3614                           ;lt89xxdrvspi.c: 39: RA5=0;
  3615  04A0  1285               	bcf	5,5
  3616  04A1  0008               	return
  3617  04A2                     __end_of_SPI_SendByte:	
  3618                           
  3619                           	psect	text814
  3620  0354                     __ptext814:	
  3621 ;; =============== function _SPI_SendByte ends ============
  3622                           
  3623                           
  3624 ;; *************** function _check_sum *****************
  3625 ;; Defined at:
  3626 ;;		line 290 in file "main.c"
  3627 ;; Parameters:    Size  Location     Type
  3628 ;;  buf             1    wreg     PTR unsigned char 
  3629 ;;		 -> RXADVDATA(29), 
  3630 ;;  len             1    2[COMMON] unsigned char 
  3631 ;; Auto vars:     Size  Location     Type
  3632 ;;  buf             1    6[COMMON] PTR unsigned char 
  3633 ;;		 -> RXADVDATA(29), 
  3634 ;;  i               1    7[COMMON] unsigned char 
  3635 ;;  sum             1    5[COMMON] unsigned char 
  3636 ;; Return value:  Size  Location     Type
  3637 ;;                  1    wreg      unsigned char 
  3638 ;; Registers used:
  3639 ;;		wreg, fsr0l, fsr0h, status,2, status,0
  3640 ;; Tracked objects:
  3641 ;;		On entry : 60/0
  3642 ;;		On exit  : 100/0
  3643 ;;		Unchanged: FFE00/0
  3644 ;; Data sizes:     COMMON   BANK0   BANK1
  3645 ;;      Params:         1       0       0
  3646 ;;      Locals:         3       0       0
  3647 ;;      Temps:          2       0       0
  3648 ;;      Totals:         6       0       0
  3649 ;;Total ram usage:        6 bytes
  3650 ;; Hardware stack levels used:    1
  3651 ;; Hardware stack levels required when called:    1
  3652 ;; This function calls:
  3653 ;;		Nothing
  3654 ;; This function is called by:
  3655 ;;		_ble_chanel_scan
  3656 ;; This function uses a non-reentrant model
  3657 ;;
  3658  0354                     _check_sum:	
  3659                           
  3660                           ; Regs used in _check_sum: [wreg-fsr0h+status,2+status,0]
  3661                           ;check_sum@buf stored from wreg
  3662  0354  00F6               	movwf	check_sum@buf
  3663                           
  3664                           ;main.c: 292: unsigned char sum, i;
  3665                           ;main.c: 293: sum = 0;
  3666  0355  01F5               	clrf	check_sum@sum
  3667                           
  3668                           ;main.c: 294: i = 0;
  3669  0356  01F7               	clrf	check_sum@i
  3670                           
  3671                           ;main.c: 295: for(i = 0; i < len - 1; i++)
  3672  0357  01F7               	clrf	check_sum@i
  3673  0358                     l5035:	
  3674  0358  0872               	movf	check_sum@len,w
  3675  0359  3EFF               	addlw	255
  3676  035A  00F3               	movwf	??_check_sum
  3677  035B  30FF               	movlw	255
  3678  035C  1803               	skipnc
  3679  035D  3000               	movlw	0
  3680  035E  00F4               	movwf	??_check_sum+1
  3681  035F  3A80               	xorlw	128
  3682  0360  3C80               	sublw	128
  3683  0361  1D03               	skipz
  3684  0362  2B65               	goto	u685
  3685  0363  0873               	movf	??_check_sum,w
  3686  0364  0277               	subwf	check_sum@i,w
  3687  0365                     u685:	
  3688  0365  1803               	btfsc	3,0
  3689  0366  2B70               	goto	l5037
  3690                           
  3691                           ;main.c: 296: {
  3692                           ;main.c: 298: sum = buf[i] + sum;
  3693  0367  0877               	movf	check_sum@i,w
  3694  0368  0776               	addwf	check_sum@buf,w
  3695  0369  00F3               	movwf	??_check_sum
  3696  036A  0084               	movwf	4
  3697  036B  1383               	bcf	3,7	;select IRP bank0
  3698  036C  0800               	movf	0,w
  3699  036D  07F5               	addwf	check_sum@sum,f
  3700  036E  0AF7               	incf	check_sum@i,f
  3701  036F  2B58               	goto	l5035
  3702  0370                     l5037:	
  3703                           
  3704                           ;main.c: 299: }
  3705                           ;main.c: 300: if(buf[len - 1] == sum)
  3706  0370  0872               	movf	check_sum@len,w
  3707  0371  0776               	addwf	check_sum@buf,w
  3708  0372  00F3               	movwf	??_check_sum
  3709  0373  3EFF               	addlw	-1
  3710  0374  0084               	movwf	4
  3711  0375  1383               	bcf	3,7	;select IRP bank0
  3712  0376  0800               	movf	0,w
  3713  0377  0675               	xorwf	check_sum@sum,w
  3714  0378  1903               	btfsc	3,2
  3715                           
  3716                           ;main.c: 301: {
  3717                           ;main.c: 302: return 1;
  3718  0379  3401               	retlw	1
  3719                           
  3720                           ;main.c: 303: }
  3721                           ;main.c: 304: return 0;
  3722  037A  3400               	retlw	0
  3723  037B                     __end_of_check_sum:	
  3724                           
  3725                           	psect	text815
  3726  047B                     __ptext815:	
  3727 ;; =============== function _check_sum ends ============
  3728                           
  3729                           
  3730 ;; *************** function _DELAY_MS *****************
  3731 ;; Defined at:
  3732 ;;		line 8 in file "lt89xxdrvspi.c"
  3733 ;; Parameters:    Size  Location     Type
  3734 ;;  Tms             1    wreg     unsigned char 
  3735 ;; Auto vars:     Size  Location     Type
  3736 ;;  Tms             1    4[COMMON] unsigned char 
  3737 ;;  dly             2    2[COMMON] unsigned int 
  3738 ;; Return value:  Size  Location     Type
  3739 ;;		None               void
  3740 ;; Registers used:
  3741 ;;		wreg, status,2, status,0
  3742 ;; Tracked objects:
  3743 ;;		On entry : 60/0
  3744 ;;		On exit  : 60/0
  3745 ;;		Unchanged: FFF9F/0
  3746 ;; Data sizes:     COMMON   BANK0   BANK1
  3747 ;;      Params:         0       0       0
  3748 ;;      Locals:         3       0       0
  3749 ;;      Temps:          0       0       0
  3750 ;;      Totals:         3       0       0
  3751 ;;Total ram usage:        3 bytes
  3752 ;; Hardware stack levels used:    1
  3753 ;; Hardware stack levels required when called:    1
  3754 ;; This function calls:
  3755 ;;		Nothing
  3756 ;; This function is called by:
  3757 ;;		_LT8920_ble_tx
  3758 ;;		_ble_chanel_scan
  3759 ;;		_LT89XX_INIT
  3760 ;; This function uses a non-reentrant model
  3761 ;;
  3762  047B                     _DELAY_MS:	
  3763                           
  3764                           ; Regs used in _DELAY_MS: [wreg+status,2+status,0]
  3765                           ;DELAY_MS@Tms stored from wreg
  3766  047B  00F4               	movwf	DELAY_MS@Tms
  3767  047C                     l5027:	
  3768                           ;lt89xxdrvspi.c: 10: unsigned int dly;
  3769                           ;lt89xxdrvspi.c: 11: while(Tms)
  3770                           
  3771  047C  08F4               	movf	DELAY_MS@Tms,f
  3772  047D  1903               	btfsc	3,2
  3773  047E  0008               	return
  3774  047F  308A               	movlw	138
  3775                           
  3776                           ;lt89xxdrvspi.c: 12: {
  3777                           ;lt89xxdrvspi.c: 13: Tms--;
  3778  0480  03F4               	decf	DELAY_MS@Tms,f
  3779                           
  3780                           ;lt89xxdrvspi.c: 14: dly=650;
  3781  0481  00F2               	movwf	DELAY_MS@dly
  3782  0482  3002               	movlw	2
  3783  0483  00F3               	movwf	DELAY_MS@dly+1
  3784  0484                     l5025:	
  3785                           ;lt89xxdrvspi.c: 15: while(dly) dly--;
  3786                           
  3787  0484  0873               	movf	DELAY_MS@dly+1,w
  3788  0485  0472               	iorwf	DELAY_MS@dly,w
  3789  0486  1903               	btfsc	3,2
  3790  0487  2C7C               	goto	l5027
  3791  0488  3001               	movlw	1
  3792  0489  02F2               	subwf	DELAY_MS@dly,f
  3793  048A  3000               	movlw	0
  3794  048B  1C03               	skipc
  3795  048C  03F3               	decf	DELAY_MS@dly+1,f
  3796  048D  02F3               	subwf	DELAY_MS@dly+1,f
  3797  048E  2C84               	goto	l5025
  3798  048F                     __end_of_DELAY_MS:	
  3799                           
  3800                           	psect	text816
  3801  032A                     __ptext816:	
  3802 ;; =============== function _DELAY_MS ends ============
  3803                           
  3804                           
  3805 ;; *************** function _Init *****************
  3806 ;; Defined at:
  3807 ;;		line 79 in file "main.c"
  3808 ;; Parameters:    Size  Location     Type
  3809 ;;		None
  3810 ;; Auto vars:     Size  Location     Type
  3811 ;;		None
  3812 ;; Return value:  Size  Location     Type
  3813 ;;		None               void
  3814 ;; Registers used:
  3815 ;;		wreg, status,2
  3816 ;; Tracked objects:
  3817 ;;		On entry : 17F/0
  3818 ;;		On exit  : 17F/20
  3819 ;;		Unchanged: FFE80/0
  3820 ;; Data sizes:     COMMON   BANK0   BANK1
  3821 ;;      Params:         0       0       0
  3822 ;;      Locals:         0       0       0
  3823 ;;      Temps:          0       0       0
  3824 ;;      Totals:         0       0       0
  3825 ;;Total ram usage:        0 bytes
  3826 ;; Hardware stack levels used:    1
  3827 ;; Hardware stack levels required when called:    1
  3828 ;; This function calls:
  3829 ;;		Nothing
  3830 ;; This function is called by:
  3831 ;;		_main
  3832 ;; This function uses a non-reentrant model
  3833 ;;
  3834  032A                     _Init:	
  3835                           
  3836                           ;main.c: 90: OSCCON = 0B01110001;
  3837                           
  3838                           ; Regs used in _Init: [wreg+status,2]
  3839  032A  3071               	movlw	113
  3840  032B  1683               	bsf	3,5	;RP0=1, select bank1
  3841  032C  008F               	movwf	15	;volatile
  3842                           
  3843                           ;main.c: 93: INTCON = 0;
  3844  032D  018B               	clrf	11	;volatile
  3845                           
  3846                           ;main.c: 94: PORTA = 0B00000000;
  3847  032E  1283               	bcf	3,5	;RP0=0, select bank0
  3848  032F  0185               	clrf	5	;volatile
  3849                           
  3850                           ;main.c: 95: TRISA = 0B01011111;
  3851  0330  305F               	movlw	95
  3852  0331  1683               	bsf	3,5	;RP0=1, select bank1
  3853  0332  0085               	movwf	5	;volatile
  3854                           
  3855                           ;main.c: 96: PORTC = 0B00000000;
  3856  0333  1283               	bcf	3,5	;RP0=0, select bank0
  3857  0334  0187               	clrf	7	;volatile
  3858                           
  3859                           ;main.c: 97: TRISC = 0B00000011;
  3860  0335  3003               	movlw	3
  3861  0336  1683               	bsf	3,5	;RP0=1, select bank1
  3862  0337  0087               	movwf	7	;volatile
  3863                           
  3864                           ;main.c: 99: WPUA = 0;
  3865  0338  0195               	clrf	21	;volatile
  3866                           
  3867                           ;main.c: 100: WPUC = 0;
  3868  0339  0188               	clrf	8	;volatile
  3869                           
  3870                           ;main.c: 101: OPTION = 0B10001000;
  3871  033A  3088               	movlw	136
  3872  033B  0081               	movwf	1	;volatile
  3873                           
  3874                           ;main.c: 103: MSCKCON = 0B00000000;
  3875  033C  1283               	bcf	3,5	;RP0=0, select bank0
  3876  033D  019B               	clrf	27	;volatile
  3877                           
  3878                           ;main.c: 106: CMCON0 = 0B00000111;
  3879  033E  3007               	movlw	7
  3880  033F  0099               	movwf	25	;volatile
  3881                           
  3882                           ;main.c: 110: T1CON = 0B00000000;
  3883  0340  0190               	clrf	16	;volatile
  3884                           
  3885                           ;main.c: 113: TMR1L = 0XBF;
  3886  0341  30BF               	movlw	191
  3887  0342  008E               	movwf	14	;volatile
  3888                           
  3889                           ;main.c: 115: TMR1H = 0XE0;
  3890  0343  30E0               	movlw	224
  3891  0344  008F               	movwf	15	;volatile
  3892  0345  3050               	movlw	80
  3893                           
  3894                           ;main.c: 116: TMR1IE = 1;
  3895  0346  1683               	bsf	3,5	;RP0=1, select bank1
  3896  0347  140C               	bsf	12,0
  3897                           
  3898                           ;main.c: 117: TMR1ON = 1;
  3899  0348  1283               	bcf	3,5	;RP0=0, select bank0
  3900  0349  1410               	bsf	16,0
  3901                           
  3902                           ;main.c: 118: PEIE=1;
  3903  034A  170B               	bsf	11,6
  3904                           
  3905                           ;main.c: 119: GIE = 1;
  3906  034B  178B               	bsf	11,7
  3907                           
  3908                           ;main.c: 124: ADCON1 = 0B01010000;
  3909  034C  1683               	bsf	3,5	;RP0=1, select bank1
  3910  034D  009F               	movwf	31	;volatile
  3911                           
  3912                           ;main.c: 126: ADCON0 = 0B10001001;
  3913  034E  3089               	movlw	137
  3914  034F  1283               	bcf	3,5	;RP0=0, select bank0
  3915  0350  009F               	movwf	31	;volatile
  3916                           
  3917                           ;main.c: 130: ANSEL = 0;
  3918  0351  1683               	bsf	3,5	;RP0=1, select bank1
  3919  0352  0191               	clrf	17	;volatile
  3920  0353  0008               	return
  3921  0354                     __end_of_Init:	
  3922                           
  3923                           	psect	text817
  3924  03C4                     __ptext817:	
  3925 ;; =============== function _Init ends ============
  3926                           
  3927                           
  3928 ;; *************** function _ISR *****************
  3929 ;; Defined at:
  3930 ;;		line 49 in file "main.c"
  3931 ;; Parameters:    Size  Location     Type
  3932 ;;		None
  3933 ;; Auto vars:     Size  Location     Type
  3934 ;;		None
  3935 ;; Return value:  Size  Location     Type
  3936 ;;		None               void
  3937 ;; Registers used:
  3938 ;;		wreg, status,2, status,0
  3939 ;; Tracked objects:
  3940 ;;		On entry : 0/0
  3941 ;;		On exit  : 40/0
  3942 ;;		Unchanged: FFF9F/0
  3943 ;; Data sizes:     COMMON   BANK0   BANK1
  3944 ;;      Params:         0       0       0
  3945 ;;      Locals:         0       0       0
  3946 ;;      Temps:          2       0       0
  3947 ;;      Totals:         2       0       0
  3948 ;;Total ram usage:        2 bytes
  3949 ;; Hardware stack levels used:    1
  3950 ;; This function calls:
  3951 ;;		Nothing
  3952 ;; This function is called by:
  3953 ;;		Interrupt level 1
  3954 ;; This function uses a non-reentrant model
  3955 ;;
  3956  03C4                     _ISR:	
  3957                           
  3958                           ;main.c: 50: GIE=0;
  3959  03C4  138B               	bcf	11,7
  3960                           
  3961                           ;main.c: 55: if(TMR1IE && TMR1IF)
  3962  03C5  1683               	bsf	3,5	;RP0=1, select bank1
  3963  03C6  1303               	bcf	3,6	;RP1=0, select bank1
  3964  03C7  1C0C               	btfss	12,0
  3965  03C8  2BDE               	goto	i1l4983
  3966  03C9  1283               	bcf	3,5	;RP0=0, select bank0
  3967  03CA  1C0C               	btfss	12,0
  3968  03CB  2BDE               	goto	i1l4983
  3969  03CC  302F               	movlw	47
  3970                           
  3971                           ;main.c: 56: {
  3972                           ;main.c: 57: TMR1IF = 0;
  3973  03CD  100C               	bcf	12,0
  3974                           
  3975                           ;main.c: 58: TMR1L = 0X2F;
  3976  03CE  008E               	movwf	14	;volatile
  3977                           
  3978                           ;main.c: 60: T250uS++;
  3979  03CF  30F8               	movlw	248
  3980  03D0  008F               	movwf	15	;volatile
  3981                           
  3982                           ;main.c: 63: rxtimeout++;
  3983  03D1  0AA0               	incf	_rxtimeout,f
  3984  03D2  1903               	skipnz
  3985  03D3  0AA1               	incf	_rxtimeout+1,f
  3986                           
  3987                           ;main.c: 65: if(rxtimeout > 4000)
  3988  03D4  300F               	movlw	15
  3989  03D5  0221               	subwf	_rxtimeout+1,w
  3990  03D6  30A1               	movlw	161
  3991  03D7  1903               	skipnz
  3992  03D8  0220               	subwf	_rxtimeout,w
  3993  03D9  1C03               	skipc
  3994  03DA  2BDE               	goto	i1l4983
  3995                           
  3996                           ;main.c: 66: {
  3997                           ;main.c: 67: rxtimeout = 0;
  3998  03DB  01A0               	clrf	_rxtimeout
  3999  03DC  01A1               	clrf	_rxtimeout+1
  4000                           
  4001                           ;main.c: 68: LT8920_work_sta = SCAN;
  4002  03DD  01A2               	clrf	_LT8920_work_sta
  4003  03DE                     i1l4983:	
  4004                           
  4005                           ;main.c: 70: }
  4006                           ;main.c: 74: }
  4007                           ;main.c: 75: GIE=1;
  4008  03DE  178B               	bsf	11,7
  4009  03DF  0871               	movf	??_ISR+1,w
  4010  03E0  008A               	movwf	10
  4011  03E1  0E70               	swapf	??_ISR^(0+-128),w
  4012  03E2  0083               	movwf	3
  4013  03E3  0EFE               	swapf	126,f
  4014  03E4  0E7E               	swapf	126,w
  4015  03E5  0009               	retfie
  4016  03E6                     __end_of_ISR:	
  4017                           
  4018                           	psect	intentry
  4019  0004                     __pintentry:	
  4020                           ; Regs used in _ISR: [wreg+status,2+status,0]
  4021                           
  4022  0004                     interrupt_function:	
  4023  007E                     saved_w	set	btemp
  4024  0004  00FE               	movwf	btemp
  4025  0005  0E03               	swapf	3,w
  4026  0006  00F0               	movwf	??_ISR
  4027  0007  080A               	movf	10,w
  4028  0008  00F1               	movwf	??_ISR+1
  4029  0009  2BC4               	ljmp	_ISR
  4030                           
  4031                           	psect	text818
  4032  0000                     __ptext818:	
  4033 ;; =============== function _ISR ends ============
  4034                           
  4035  007E                     btemp	set	126	;btemp
  4036  007E                     wtemp0	set	126


HI-TECH Software PICC Macro Assembler V9.83 build 10920 
Symbol Table                                                                                   Wed Dec 04 19:25:43 2019

                                pc 0002                       _SPI_SendByte 048F  
           __end_of_LT_ReadBUF_ble 0467                                 fsr 0004  
                     get_crc@lenth 0076        __end_of_LT8920_ble_rx_start 02F9  
                     ?_LT89XX_INIT 0070                                _GIE 005F  
                              _RA5 002D                                _RC2 003A  
                              _RA6 002E                                _RC3 003B  
                              _RA7 002F                                _RC4 003C  
                              _RC5 003D                                _ISR 03C4  
                              _SR0 0CF6                                _SR1 0CF7  
                              u744 03A9                                u745 03A7  
                              u764 03B8                                u685 0365  
                              u765 03B6        __end_of_LT8920_ble_tx_start 02C6  
                              fsr0 0004                                indf 0000  
     __end_of_LT8920_ble_rx_enable 04B4                        _LT_WriteReg 04FE  
               LT_ReadBUF_ble@pBuf 0074             LT8920_ble_tx_start@len 0069  
                             S5765 04F2       __end_of_LT8920_ble_tx_enable 04D5  
                             ?_ISR 0070                               l1112 0000  
                             l1140 0000                               l1132 020A  
                             l1125 0000                               l1134 0208  
                             l1145 0000                               l2241 0472  
                             l2234 0496                               l2235 0497  
                             l2243 0000                               l2236 0000  
                             l2229 0000                               l2246 0000  
                             l2239 046A                               l2272 0465  
                             l3400 0000                               l5001 0000  
                             l2249 0000                               l2273 0000  
                             l2266 0402                               l2282 0000  
                             l5011 0000                               l5003 0000  
                             l2267 0000                               l2276 02FD  
                             l5013 0000                               l5005 0000  
                             l5101 0261                               l5015 0000  
                             l5007 0000                               l5111 0270  
                             l5103 026B                               l2296 0194  
                             l5017 0000                               l5009 0000  
                             l5025 0484                               l5033 0000  
                             l5121 027F                               l5113 027A  
                             l3370 0000                               l5027 047C  
                             l5019 0000                               l5035 0358  
                             l5037 0370                               l5029 0000  
                             l5109 0000                               l3373 0000  
                             l3437 0000                               l3445 0000  
                             l5119 0000                               l3376 0000  
                             l3448 0000                               l3394 0000  
                             l5083 03A3                               l5077 0000  
                             l5093 0000                               l5501 0000  
                             l5087 03BD                               l5503 0000  
                             l5511 0000                               l5505 0000  
                             l5513 0000                               l5521 0000  
                             l5601 0000                               l5451 0000  
                             l5099 0000                               l5507 0000  
                             l5531 0458                               l5523 0000  
                             l5603 0000                               l5611 0000  
                             l5445 0000                               l5437 0000  
                             l5461 0000                               l5517 0000  
                             l5509 0000                               l5525 0000  
                             l5541 0000                               l5533 0000  
                             l5605 0000                               l5621 02BA  
                             l5613 0000                               l5447 0000  
                             l5463 0000                               l5519 03F5  
                             l5543 0000                               l5535 0000  
                             l5551 0000                               l5607 0000  
                             l5631 02DB                               l5711 0215  
                             l5449 0000                               l5473 0000  
                             l5529 0000                               l5545 0000  
                             l5561 0305                               l5553 0000  
                             l5625 02C4                               l5617 02B4  
                             l5609 0000                               l5641 0000  
                             l5713 0000                               l5705 0000  
                             l5459 0473                               l5483 0000  
                             l5475 0220                               l5467 0000  
                             l5539 0000                               l5547 00F2  
                             l5563 0000                               l5555 0000  
                             l5635 02EA                               l5627 0000  
                             l5651 0392                               l5643 0000  
                             l5707 0000                               l5723 04E6  
                             l5715 0000                               l5731 0000  
                             l5493 0000                               l5485 022E  
                             l5477 0229                               l5549 016A  
                             l5565 0000                               l5581 01A8  
                             l5661 0000                               l5709 0213  
                             l5725 0000                               l5717 0000  
                             l5741 0000                               l5733 0000  
                             l5495 023C                               l5487 0237  
                             l5591 01C3                               l5583 01AC  
                             l5575 0000                               l5647 038B  
                             l5639 0000                               l5655 0000  
                             l5663 0000                               l5671 0000  
                             l5727 0000                               l5743 0000  
                             l5735 0000                               l5497 0000  
                             l5569 0000                               l5585 01B4  
                             l5577 0195                               l5665 0000  
                             l5657 0000                               l5745 0000  
                             l5737 044A                               l5729 0000  
                             l5499 0000                               l5587 01B9  
                             l5579 01A3                               l5667 0000  
                             l5659 0000                               l5683 0000  
                             l5747 0000                               l5739 0440  
                             l5589 01BE                               l5677 01D5  
                             l5669 0000                               l5749 0000  
                             l4991 0000                               l5599 0000  
                             l5695 01FA                               l5679 0000  
                             l4993 0000                               l4985 0000  
                             l5697 0000                               l4995 0000  
                             l4987 0000                               l5699 01FE  
                             l4997 0000                               l4989 0000  
                             l4999 0000                               u1405 0116  
                             u1415 0122                               u1425 012A  
                             u1435 0132                               u1445 014F  
                             u1455 00FF                               u1395 010E  
                             _PEIE 005E                               _STRA 0CE8  
                             _STRB 0CE9                               _STRC 0CEA  
                             _STRD 0CEB                               _WREN 0C62  
                             _WPUA 0095                               _WPUC 0088  
                             _RegH 007B                               _RegL 0023  
                             _Init 032A                     LT_WriteReg@reg 0076  
          LT8920_read_ble_fifo@len 0060                               _main 043A  
     __end_of_LT8920_ble_write_reg 0522                               btemp 007E  
                             start 000A                   __end_of_DELAY_MS 048F  
           ?_LT8920_write_ble_fifo 0079           ?_LT8920_ble_to_localdata 0072  
             get_crc@user_data_buf 0066                LT_ReadBUF_ble@lenth 0075  
                            ??_ISR 0070                    ?_LT_ReadBUF_ble 0074  
                 LT_WriteBUF_ble@i 0078                              ?_Init 0070  
         __size_of_LT_WriteBUF_ble 001E                              _C1SEN 0CF5  
                            _C2REN 0CF4                              ?_main 0070  
                            _EEPGD 0C67                              _ANSEL 0091  
                            _T1CON 0010                              _TMR1H 000F  
                            _TMR1L 000E                              _PORTA 0005  
                            _PORTC 0007                              _SRCON 019E  
                            _PULSR 0CF2                              _PULSS 0CF3  
                            _TRISA 0085                              _TRISC 0087  
         LT8920_write_ble_fifo@len 0079             ??_LT8920_read_ble_fifo 007B  
                  _ble_chanel_scan 01D2                    __end_of_get_crc 0186  
            __end_of_ble_read_fifo 0528                   SPI_ReadByte@mcnt 0073  
                            pclath 000A               _LT8920_pdudata_white 025C  
                            status 0003                              wtemp0 007E  
               LT89XX_INIT@CFG_CNT 0077                        ?_LT_ReadReg 0070  
      LT8920_write_ble_fifo@txdata 007A                       __end_of_Init 0354  
                     __end_of_main 0452                             ??_Init 0072  
                           ??_main 007B                             _ADCON0 001F  
                           _ADCON1 009F                             _CMCON0 0019  
          LT8920_ble_write_reg@reg 0079              ?_LT8920_pdudata_white 0072  
                           i1l1109 0000                             i1l4975 0000  
                           i1l4983 03DE                             i1l4977 0000  
                           i1l4969 0000                             i1l4979 0000  
                           _INTCON 000B                             _OSCCON 008F  
                           _TMR1IE 0460                             _TMR1IF 0060  
                           _OPTION 0081                             _TMR1ON 0080  
  __end_of_LT8920_ble_to_localdata 0245         LT8920_pdudata_white@chanel 0078  
                  SPI_SendByte@buf 0072               _LT8920_ble_rx_enable 04A2  
             _LT8920_ble_tx_enable 04C5                             _ledsta 0024  
          __end_of_ble_chanel_scan 021B                             _rxflag 0025  
                        ??_get_crc 005D                             clrloop 0514  
               LT89xx_ModeSet@dat1 0077               _LT8920_ble_write_reg 051B  
                           saved_w 007E               __size_of_LT89XX_INIT 002D  
                        ?_DELAY_MS 0070                  ??_LT_WriteBUF_ble 0076  
              __size_of_LT_ReadReg 000A                      LT_ReadReg@reg 0074  
                     LT_WriteReg@H 0074                       LT_WriteReg@L 0075  
            ?_LT8920_ble_rx_enable 0070                     __pcstackCOMMON 0070  
                     __pidataBANK0 0420              ?_LT8920_ble_tx_enable 0070  
               __size_of_check_sum 0027                    _LT8920_work_sta 0022  
          __size_of_LT89xx_ModeSet 0042              ?_LT8920_ble_write_reg 0077  
        LT8920_ble_write_reg@first 0077                       ?_LT_WriteReg 0074  
                       ??_DELAY_MS 0072             ??_LT8920_pdudata_white 0074  
               LT_WriteBUF_ble@len 0075                 LT_WriteBUF_ble@reg 0077  
                       __pbssBANK0 0020          LT8920_ble_rx_start@chanel 007A  
          ??_LT8920_write_ble_fifo 007A                   ??_LT_ReadBUF_ble 0076  
                       __pmaintext 043A              __end_of_LT8920_ble_rx 04F2  
            __end_of_LT8920_ble_tx 0420        LT8920_pdudata_white@PDUDATA 0072  
                       __pintentry 0004           LT8920_ble_to_localdata@i 005E  
                 ?_ble_chanel_scan 0070                   ble_read_fifo@buf 005D  
                 ble_read_fifo@len 007A   __size_of_LT8920_ble_to_localdata 002A  
                          _PDUDATA 0043                 __size_of_roll_data 0024  
                          _MSCKCON 001B       __size_of_LT8920_ble_rx_start 002D  
                          _PSTRCON 019D       __size_of_LT8920_ble_tx_start 002C  
                          _STRSYNC 0CEC            LT8920_pdudata_white@len 0073  
                __end_of_check_sum 037B     LT8920_ble_to_localdata@ADVDATA 0072  
           ??_LT8920_ble_rx_enable 007A                   SPI_SendByte@mcnt 0073  
                     ??_LT_ReadReg 0074             ??_LT8920_ble_tx_enable 007A  
                       check_sum@i 0077             ??_LT8920_ble_write_reg 0079  
                          _get_crc 00EC                       __size_of_ISR 0022  
    __size_of_LT8920_read_ble_fifo 001E                 __end_of_LT_ReadReg 0513  
             end_of_initialization 04C3                            init_ram 04D9  
                roll_data@roll_out 0074                  __end_of_roll_data 03C4  
           __size_of_ble_read_fifo 0006                    _LT_WriteBUF_ble 03E6  
                        _RXADVDATA 0026                     _LT89xx_ModeSet 0186  
             __size_of_LT_WriteReg 000B                  __size_of_DELAY_MS 0014  
                LT_ReadBUF_ble@reg 0078                      ?_SPI_ReadByte 0070  
                    ?_SPI_SendByte 0070             __end_of_LT89xx_ModeSet 01C8  
                    ??_LT89XX_INIT 0077            _LT8920_ble_to_localdata 021B  
                 ble_chanel_scan@i 0063  LT8920_ble_to_localdata@adv_offset 0074  
              start_initialization 04B4                        __end_of_ISR 03E6  
       LT8920_ble_to_localdata@len 0073                      _ble_read_fifo 0522  
       LT8920_read_ble_fifo@chanel 0061         LT8920_ble_write_reg@second 0078  
   __size_of_LT8920_write_ble_fifo 0006                     ??_SPI_ReadByte 0072  
    __end_of_LT8920_write_ble_fifo 052E              LT8920_pdudata_white@i 0079  
          __end_of_LT_WriteBUF_ble 0404                     ??_SPI_SendByte 0072  
              _LT8920_ble_rx_start 02CC                _LT8920_ble_tx_start 029A  
                      __pdataBANK0 0043                LT_WriteBUF_ble@pBuf 0074  
                  ?_LT89xx_ModeSet 0070                        __pbssCOMMON 007B  
                    __pcstackBANK0 005D               ?_LT8920_ble_rx_start 0070  
                   ?_ble_read_fifo 007A                __end_of_LT89XX_INIT 032A  
             ?_LT8920_ble_tx_start 0068      __size_of_LT8920_pdudata_white 002D  
                        _check_sum 0354                       check_sum@buf 0076  
                     check_sum@len 0072                       check_sum@sum 0075  
    LT8920_read_ble_fifo@RXADVDATA 005F         LT8920_ble_tx_start@PDUDATA 0068  
                        __ptext800 0528                          __ptext801 051B  
                        __ptext810 025C                          __ptext802 0186  
                        __ptext811 03A0                          __ptext803 02FD  
                        __ptext812 0467                          __ptext804 00EC  
                        __ptext813 048F                          __ptext805 0452  
                        __ptext814 0354                          __ptext806 03E6  
                        __ptext815 047B                          __ptext807 04FE  
                        __ptext816 032A                          __ptext808 0509  
                        __ptext817 03C4                          __ptext809 021B  
                        __ptext818 0000                          __ptext791 04E4  
                        __ptext792 01D2                          __ptext793 0404  
                        __ptext794 04A2                          __ptext795 037B  
                        __ptext796 02CC                          __ptext797 029A  
                        __ptext798 04C5                          __ptext799 0522  
        ??_LT8920_ble_to_localdata 0075                          __pstrings 000B  
                        __pswtext1 04F2                           ?_get_crc 0076  
                         _DELAY_MS 047B              ??_LT8920_ble_rx_start 007A  
         __size_of_ble_chanel_scan 0049              ??_LT8920_ble_tx_start 007B  
           __size_of_LT8920_ble_rx 000E             __size_of_LT8920_ble_tx 001C  
                    _LDT8900config 0011                  interrupt_function 0004  
                       ?_check_sum 0072      LT8920_ble_to_localdata@chanel 005D  
             SPI_ReadByte@retvalue 0072                   roll_data@roll_in 0073  
                 ?_LT_WriteBUF_ble 0074      __size_of_LT8920_ble_rx_enable 0012  
     __end_of_LT8920_read_ble_fifo 0399      __size_of_LT8920_ble_tx_enable 0010  
                        _roll_data 03A0                          get_crc@c0 0062  
                        get_crc@c1 0063                          get_crc@c2 0064  
          __size_of_LT_ReadBUF_ble 0015                        __stringbase 0010  
                      _LT89XX_INIT 02FD      __size_of_LT8920_ble_write_reg 0007  
                       roll_data@i 0075                        DELAY_MS@Tms 0074  
                      DELAY_MS@dly 0072               __end_of_SPI_ReadByte 047B  
                  ??_ble_read_fifo 007B                     LT8920_ble_rx@i 0064  
             __end_of_SPI_SendByte 04A2                          _rxtimeout 0020  
                    _WHITE_INDEX37 0077                      _WHITE_INDEX38 009E  
                    _WHITE_INDEX39 00C5                          init_fetch 04D5  
                    _LT8920_ble_rx 04E4                      _LT8920_ble_tx 0404  
                       ?_roll_data 0070                   __size_of_get_crc 009A  
                    ??_LT_WriteReg 0076              ble_chanel_scan@chanel 0062  
                    __size_of_Init 002A                      __size_of_main 0018  
                ??_ble_chanel_scan 007B                        ??_check_sum 0073  
        LT8920_ble_tx_start@chanel 006A                           clear_ram 0513  
                 ??_LT89xx_ModeSet 0077                     ?_LT8920_ble_rx 0070  
                   ?_LT8920_ble_tx 0070                           get_crc@e 0067  
                         get_crc@i 0065                    LT_ReadBUF_ble@i 0079  
             _LT8920_read_ble_fifo 037B                           intlevel1 0000  
              __end_of_LT_WriteReg 0509                          stringcode 000B  
            _LT8920_write_ble_fifo 0528       __end_of_LT8920_pdudata_white 0289  
                      ??_roll_data 0072              __size_of_SPI_ReadByte 0014  
                   _LT_ReadBUF_ble 0452              __size_of_SPI_SendByte 0013  
                         stringdir 000B                           stringtab 000B  
            ?_LT8920_read_ble_fifo 005F                    ??_LT8920_ble_rx 007B  
                  ??_LT8920_ble_tx 007B                       _SPI_ReadByte 0467  
                       _LT_ReadReg 0509  
