//Deviec:FT61F02X
//-----------------------Variable---------------------------------
		__RegH		EQU		3CH
		__RegL		EQU		7BH
		_lt8988_work_sta		EQU		3EH
		_rxtimeout		EQU		3AH
		_rxflag		EQU		3FH
		_PDUDATA		EQU		20H
		_RXADVDATA		EQU		40H
		_ledsta		EQU		3DH
//-----------------------Variable END---------------------------------
		ORG		0000H
		LJUMP 	0AH 			//0000 	380A
		ORG		0004H
		STR 	7EH 			//0004 	01FE
		SWAPR 	STATUS,0 		//0005 	0703
		STR 	70H 			//0006 	01F0
		LDR 	PCLATH,0 		//0007 	080A
		STR 	71H 			//0008 	01F1
		LJUMP 	47CH 			//0009 	3C7C
		LJUMP 	513H 			//000A 	3D13
		STR 	56H 			//000B 	01D6
		ORG		000CH
		LDWI 	55H 			//000C 	2A55
		STR 	52H 			//000D 	01D2
		STR 	53H 			//000E 	01D3
		STR 	54H 			//000F 	01D4
		CLRR 	55H 			//0010 	0155
		LDR 	76H,0 			//0011 	0876
		ADDWI 	FDH 			//0012 	27FD
		STR 	4DH 			//0013 	01CD
		ORG		0014H
		LDWI 	FFH 			//0014 	2AFF
		BTSC 	STATUS,0 		//0015 	1403
		LDWI 	0H 			//0016 	2A00
		STR 	4EH 			//0017 	01CE
		XORWI 	80H 			//0018 	2680
		SUBWI 	80H 			//0019 	2880
		BTSS 	STATUS,2 		//001A 	1D03
		LJUMP 	1EH 			//001B 	381E
		ORG		001CH
		LDR 	4DH,0 			//001C 	084D
		SUBWR 	55H,0 			//001D 	0C55
		BTSC 	STATUS,0 		//001E 	1403
		LJUMP 	89H 			//001F 	3889
		BCR 	STATUS,5 		//0020 	1283
		BCR 	STATUS,6 		//0021 	1303
		LDR 	55H,0 			//0022 	0855
		ADDWR 	56H,0 			//0023 	0B56
		ORG		0024H
		STR 	4DH 			//0024 	01CD
		STR 	FSR 			//0025 	0184
		BCR 	STATUS,7 		//0026 	1383
		LDR 	INDF,0 			//0027 	0800
		LCALL 	458H 			//0028 	3458
		XORWR 	54H,0 			//0029 	0454
		STR 	57H 			//002A 	01D7
		STR 	4DH 			//002B 	01CD
		ORG		002CH
		LDWI 	7H 			//002C 	2A07
		BCR 	STATUS,0 		//002D 	1003
		RRR	4DH,1 			//002E 	06CD
		ADDWI 	FFH 			//002F 	27FF
		BTSS 	STATUS,2 		//0030 	1D03
		LJUMP 	2DH 			//0031 	382D
		LDR 	57H,0 			//0032 	0857
		STR 	4EH 			//0033 	01CE
		ORG		0034H
		LDWI 	6H 			//0034 	2A06
		BCR 	STATUS,0 		//0035 	1003
		RRR	4EH,1 			//0036 	06CE
		ADDWI 	FFH 			//0037 	27FF
		BTSS 	STATUS,2 		//0038 	1D03
		LJUMP 	35H 			//0039 	3835
		LDR 	4EH,0 			//003A 	084E
		XORWR 	4DH,0 			//003B 	044D
		ORG		003CH
		XORWR 	53H,0 			//003C 	0453
		STR 	54H 			//003D 	01D4
		LDR 	57H,0 			//003E 	0857
		STR 	4DH 			//003F 	01CD
		LDWI 	7H 			//0040 	2A07
		BCR 	STATUS,0 		//0041 	1003
		RRR	4DH,1 			//0042 	06CD
		ADDWI 	FFH 			//0043 	27FF
		ORG		0044H
		BTSS 	STATUS,2 		//0044 	1D03
		LJUMP 	41H 			//0045 	3841
		LDR 	57H,0 			//0046 	0857
		STR 	4EH 			//0047 	01CE
		LDWI 	5H 			//0048 	2A05
		BCR 	STATUS,0 		//0049 	1003
		RRR	4EH,1 			//004A 	06CE
		ADDWI 	FFH 			//004B 	27FF
		ORG		004CH
		BTSS 	STATUS,2 		//004C 	1D03
		LJUMP 	49H 			//004D 	3849
		LDR 	57H,0 			//004E 	0857
		STR 	4FH 			//004F 	01CF
		LDWI 	4H 			//0050 	2A04
		BCR 	STATUS,0 		//0051 	1003
		RRR	4FH,1 			//0052 	06CF
		ADDWI 	FFH 			//0053 	27FF
		ORG		0054H
		BTSS 	STATUS,2 		//0054 	1D03
		LJUMP 	51H 			//0055 	3851
		LDR 	57H,0 			//0056 	0857
		STR 	50H 			//0057 	01D0
		BCR 	STATUS,0 		//0058 	1003
		RRR	50H,1 			//0059 	06D0
		BCR 	STATUS,0 		//005A 	1003
		RRR	50H,1 			//005B 	06D0
		ORG		005CH
		LDR 	57H,0 			//005C 	0857
		STR 	51H 			//005D 	01D1
		BCR 	STATUS,0 		//005E 	1003
		RLR 	51H,1 			//005F 	05D1
		BCR 	STATUS,0 		//0060 	1003
		RLR 	51H,1 			//0061 	05D1
		BCR 	STATUS,0 		//0062 	1003
		RLR 	57H,0 			//0063 	0557
		ORG		0064H
		XORWR 	51H,0 			//0064 	0451
		XORWR 	50H,0 			//0065 	0450
		XORWR 	4FH,0 			//0066 	044F
		XORWR 	4EH,0 			//0067 	044E
		XORWR 	4DH,0 			//0068 	044D
		XORWR 	52H,0 			//0069 	0452
		STR 	53H 			//006A 	01D3
		LDR 	57H,0 			//006B 	0857
		ORG		006CH
		STR 	4DH 			//006C 	01CD
		LDWI 	6H 			//006D 	2A06
		BCR 	STATUS,0 		//006E 	1003
		RLR 	4DH,1 			//006F 	05CD
		ADDWI 	FFH 			//0070 	27FF
		BTSS 	STATUS,2 		//0071 	1D03
		LJUMP 	6EH 			//0072 	386E
		LDR 	57H,0 			//0073 	0857
		ORG		0074H
		STR 	4EH 			//0074 	01CE
		SWAPR 	4EH,0 			//0075 	074E
		ANDWI 	F0H 			//0076 	24F0
		STR 	4EH 			//0077 	01CE
		LDR 	57H,0 			//0078 	0857
		STR 	4FH 			//0079 	01CF
		BCR 	STATUS,0 		//007A 	1003
		RLR 	4FH,1 			//007B 	05CF
		ORG		007CH
		BCR 	STATUS,0 		//007C 	1003
		RLR 	4FH,1 			//007D 	05CF
		BCR 	STATUS,0 		//007E 	1003
		RLR 	4FH,1 			//007F 	05CF
		BCR 	STATUS,0 		//0080 	1003
		RLR 	57H,0 			//0081 	0557
		XORWR 	4FH,0 			//0082 	044F
		XORWR 	4EH,0 			//0083 	044E
		ORG		0084H
		XORWR 	4DH,0 			//0084 	044D
		XORWR 	57H,0 			//0085 	0457
		STR 	52H 			//0086 	01D2
		INCR	55H,1 			//0087 	09D5
		LJUMP 	11H 			//0088 	3811
		LDR 	76H,0 			//0089 	0876
		BCR 	STATUS,5 		//008A 	1283
		BCR 	STATUS,6 		//008B 	1303
		ORG		008CH
		ADDWR 	56H,0 			//008C 	0B56
		STR 	4DH 			//008D 	01CD
		ADDWI 	FFH 			//008E 	27FF
		STR 	FSR 			//008F 	0184
		LDR 	52H,0 			//0090 	0852
		LCALL 	458H 			//0091 	3458
		BCR 	STATUS,7 		//0092 	1383
		STR 	INDF 			//0093 	0180
		ORG		0094H
		LDR 	76H,0 			//0094 	0876
		ADDWR 	56H,0 			//0095 	0B56
		STR 	4DH 			//0096 	01CD
		ADDWI 	FEH 			//0097 	27FE
		STR 	FSR 			//0098 	0184
		LDR 	53H,0 			//0099 	0853
		LCALL 	458H 			//009A 	3458
		STR 	INDF 			//009B 	0180
		ORG		009CH
		LDR 	76H,0 			//009C 	0876
		ADDWR 	56H,0 			//009D 	0B56
		STR 	4DH 			//009E 	01CD
		ADDWI 	FDH 			//009F 	27FD
		STR 	FSR 			//00A0 	0184
		LDR 	54H,0 			//00A1 	0854
		LCALL 	458H 			//00A2 	3458
		STR 	INDF 			//00A3 	0180
		ORG		00A4H
		RET		 					//00A4 	0004
		STR 	4DH 			//00A5 	01CD
		XORWI 	25H 			//00A6 	2625
		BTSS 	STATUS,2 		//00A7 	1D03
		LJUMP 	BEH 			//00A8 	38BE
		CLRR 	4EH 			//00A9 	014E
		LDR 	73H,0 			//00AA 	0873
		SUBWR 	4EH,0 			//00AB 	0C4E
		ORG		00ACH
		BTSC 	STATUS,0 		//00AC 	1403
		LJUMP 	B3H 			//00AD 	38B3
		LDWI 	1H 			//00AE 	2A01
		LCALL 	11BH 			//00AF 	311B
		LCALL 	126H 			//00B0 	3126
		LCALL 	100H 			//00B1 	3100
		LJUMP 	AAH 			//00B2 	38AA
		LDWI 	3H 			//00B3 	2A03
		ORG		00B4H
		STR 	4EH 			//00B4 	01CE
		LDR 	73H,0 			//00B5 	0873
		SUBWR 	4EH,0 			//00B6 	0C4E
		BTSC 	STATUS,0 		//00B7 	1403
		LJUMP 	F2H 			//00B8 	38F2
		LDR 	4EH,0 			//00B9 	084E
		LCALL 	111H 			//00BA 	3111
		ADDWI 	FDH 			//00BB 	27FD
		ORG		00BCH
		LCALL 	121H 			//00BC 	3121
		LJUMP 	B5H 			//00BD 	38B5
		LDR 	4DH,0 			//00BE 	084D
		XORWI 	26H 			//00BF 	2626
		BTSS 	STATUS,2 		//00C0 	1D03
		LJUMP 	D7H 			//00C1 	38D7
		CLRR 	4EH 			//00C2 	014E
		LDR 	73H,0 			//00C3 	0873
		ORG		00C4H
		SUBWR 	4EH,0 			//00C4 	0C4E
		BTSC 	STATUS,0 		//00C5 	1403
		LJUMP 	CCH 			//00C6 	38CC
		LDWI 	28H 			//00C7 	2A28
		LCALL 	11BH 			//00C8 	311B
		LCALL 	126H 			//00C9 	3126
		LCALL 	100H 			//00CA 	3100
		LJUMP 	C3H 			//00CB 	38C3
		ORG		00CCH
		LDWI 	2H 			//00CC 	2A02
		STR 	4EH 			//00CD 	01CE
		LDR 	73H,0 			//00CE 	0873
		SUBWR 	4EH,0 			//00CF 	0C4E
		BTSC 	STATUS,0 		//00D0 	1403
		LJUMP 	F2H 			//00D1 	38F2
		LDR 	4EH,0 			//00D2 	084E
		LCALL 	111H 			//00D3 	3111
		ORG		00D4H
		ADDWI 	FEH 			//00D4 	27FE
		LCALL 	121H 			//00D5 	3121
		LJUMP 	CEH 			//00D6 	38CE
		LDR 	4DH,0 			//00D7 	084D
		XORWI 	27H 			//00D8 	2627
		BTSS 	STATUS,2 		//00D9 	1D03
		LJUMP 	F2H 			//00DA 	38F2
		CLRR 	4EH 			//00DB 	014E
		ORG		00DCH
		LDR 	73H,0 			//00DC 	0873
		SUBWR 	4EH,0 			//00DD 	0C4E
		BTSC 	STATUS,0 		//00DE 	1403
		LJUMP 	E5H 			//00DF 	38E5
		LDWI 	4FH 			//00E0 	2A4F
		LCALL 	11BH 			//00E1 	311B
		LCALL 	126H 			//00E2 	3126
		LCALL 	100H 			//00E3 	3100
		ORG		00E4H
		LJUMP 	DCH 			//00E4 	38DC
		CLRR 	4EH 			//00E5 	014E
		INCR	4EH,1 			//00E6 	09CE
		LDR 	73H,0 			//00E7 	0873
		SUBWR 	4EH,0 			//00E8 	0C4E
		BTSC 	STATUS,0 		//00E9 	1403
		LJUMP 	F2H 			//00EA 	38F2
		LDR 	4EH,0 			//00EB 	084E
		ORG		00ECH
		LCALL 	111H 			//00EC 	3111
		ADDWI 	FFH 			//00ED 	27FF
		STR 	FSR 			//00EE 	0184
		LDR 	76H,0 			//00EF 	0876
		STR 	INDF 			//00F0 	0180
		LJUMP 	E6H 			//00F1 	38E6
		LDWI 	AH 			//00F2 	2A0A
		STR 	4EH 			//00F3 	01CE
		ORG		00F4H
		LDR 	73H,0 			//00F4 	0873
		SUBWR 	4EH,0 			//00F5 	0C4E
		BTSC 	STATUS,0 		//00F6 	1403
		RET		 					//00F7 	0004
		LDR 	4EH,0 			//00F8 	084E
		ADDWR 	72H,0 			//00F9 	0B72
		STR 	75H 			//00FA 	01F5
		STR 	FSR 			//00FB 	0184
		ORG		00FCH
		BCR 	STATUS,7 		//00FC 	1383
		CLRR 	INDF 			//00FD 	0100
		INCR	4EH,1 			//00FE 	09CE
		LJUMP 	F4H 			//00FF 	38F4
		STR 	76H 			//0100 	01F6
		LDR 	4EH,0 			//0101 	084E
		ADDWR 	72H,0 			//0102 	0B72
		STR 	77H 			//0103 	01F7
		ORG		0104H
		STR 	FSR 			//0104 	0184
		BCR 	STATUS,7 		//0105 	1383
		LDR 	INDF,0 			//0106 	0800
		XORWR 	76H,0 			//0107 	0476
		STR 	78H 			//0108 	01F8
		LDR 	4EH,0 			//0109 	084E
		ADDWR 	72H,0 			//010A 	0B72
		STR 	79H 			//010B 	01F9
		ORG		010CH
		STR 	FSR 			//010C 	0184
		LDR 	78H,0 			//010D 	0878
		STR 	INDF 			//010E 	0180
		INCR	4EH,1 			//010F 	09CE
		RET		 					//0110 	0004
		ADDWR 	72H,0 			//0111 	0B72
		STR 	75H 			//0112 	01F5
		STR 	FSR 			//0113 	0184
		ORG		0114H
		BCR 	STATUS,7 		//0114 	1383
		LDR 	INDF,0 			//0115 	0800
		STR 	76H 			//0116 	01F6
		LDR 	4EH,0 			//0117 	084E
		ADDWR 	72H,0 			//0118 	0B72
		STR 	77H 			//0119 	01F7
		RET		 					//011A 	0004
		ADDWR 	74H,0 			//011B 	0B74
		ORG		011CH
		STR 	75H 			//011C 	01F5
		LDR 	4EH,0 			//011D 	084E
		ADDWR 	75H,0 			//011E 	0B75
		STR 	FSR 			//011F 	0184
		RET		 					//0120 	0004
		STR 	FSR 			//0121 	0184
		LDR 	76H,0 			//0122 	0876
		STR 	INDF 			//0123 	0180
		ORG		0124H
		INCR	4EH,1 			//0124 	09CE
		RET		 					//0125 	0004
		LDWI 	1H 			//0126 	2A01
		STR 	PCLATH 			//0127 	018A
		LDR 	FSR,0 			//0128 	0804
		INCR	FSR,1 			//0129 	0984
		ADDWR 	PCL,1 			//012A 	0B82
		RETW 	0H 			//012B 	2100
		ORG		012CH
		RETW 	8DH 			//012C 	218D
		RETW 	D2H 			//012D 	21D2
		RETW 	57H 			//012E 	2157
		RETW 	A1H 			//012F 	21A1
		RETW 	3DH 			//0130 	213D
		RETW 	A7H 			//0131 	21A7
		RETW 	66H 			//0132 	2166
		RETW 	B0H 			//0133 	21B0
		ORG		0134H
		RETW 	75H 			//0134 	2175
		RETW 	31H 			//0135 	2131
		RETW 	11H 			//0136 	2111
		RETW 	48H 			//0137 	2148
		RETW 	96H 			//0138 	2196
		RETW 	77H 			//0139 	2177
		RETW 	F8H 			//013A 	21F8
		RETW 	E3H 			//013B 	21E3
		ORG		013CH
		RETW 	46H 			//013C 	2146
		RETW 	E9H 			//013D 	21E9
		RETW 	ABH 			//013E 	21AB
		RETW 	D0H 			//013F 	21D0
		RETW 	9EH 			//0140 	219E
		RETW 	53H 			//0141 	2153
		RETW 	33H 			//0142 	2133
		RETW 	D8H 			//0143 	21D8
		ORG		0144H
		RETW 	BAH 			//0144 	21BA
		RETW 	98H 			//0145 	2198
		RETW 	8H 			//0146 	2108
		RETW 	24H 			//0147 	2124
		RETW 	CBH 			//0148 	21CB
		RETW 	3BH 			//0149 	213B
		RETW 	FCH 			//014A 	21FC
		RETW 	71H 			//014B 	2171
		ORG		014CH
		RETW 	A3H 			//014C 	21A3
		RETW 	F4H 			//014D 	21F4
		RETW 	55H 			//014E 	2155
		RETW 	68H 			//014F 	2168
		RETW 	CFH 			//0150 	21CF
		RETW 	A9H 			//0151 	21A9
		RETW 	19H 			//0152 	2119
		RETW 	D6H 			//0153 	21D6
		ORG		0154H
		RETW 	C5H 			//0154 	21C5
		RETW 	44H 			//0155 	2144
		RETW 	20H 			//0156 	2120
		RETW 	59H 			//0157 	2159
		RETW 	DEH 			//0158 	21DE
		RETW 	E1H 			//0159 	21E1
		RETW 	8FH 			//015A 	218F
		RETW 	1BH 			//015B 	211B
		ORG		015CH
		RETW 	A5H 			//015C 	21A5
		RETW 	AFH 			//015D 	21AF
		RETW 	42H 			//015E 	2142
		RETW 	7BH 			//015F 	217B
		RETW 	4EH 			//0160 	214E
		RETW 	CDH 			//0161 	21CD
		RETW 	60H 			//0162 	2160
		RETW 	EBH 			//0163 	21EB
		ORG		0164H
		RETW 	62H 			//0164 	2162
		RETW 	22H 			//0165 	2122
		RETW 	90H 			//0166 	2190
		RETW 	2CH 			//0167 	212C
		RETW 	EFH 			//0168 	21EF
		RETW 	F0H 			//0169 	21F0
		RETW 	C7H 			//016A 	21C7
		RETW 	8DH 			//016B 	218D
		ORG		016CH
		RETW 	D2H 			//016C 	21D2
		RETW 	57H 			//016D 	2157
		RETW 	A1H 			//016E 	21A1
		RETW 	3DH 			//016F 	213D
		RETW 	A7H 			//0170 	21A7
		RETW 	66H 			//0171 	2166
		RETW 	B0H 			//0172 	21B0
		RETW 	75H 			//0173 	2175
		ORG		0174H
		RETW 	31H 			//0174 	2131
		RETW 	11H 			//0175 	2111
		RETW 	48H 			//0176 	2148
		RETW 	96H 			//0177 	2196
		RETW 	77H 			//0178 	2177
		RETW 	F8H 			//0179 	21F8
		RETW 	1FH 			//017A 	211F
		RETW 	37H 			//017B 	2137
		ORG		017CH
		RETW 	4AH 			//017C 	214A
		RETW 	5FH 			//017D 	215F
		RETW 	85H 			//017E 	2185
		RETW 	F6H 			//017F 	21F6
		RETW 	9CH 			//0180 	219C
		RETW 	9AH 			//0181 	219A
		RETW 	C1H 			//0182 	21C1
		RETW 	D6H 			//0183 	21D6
		ORG		0184H
		RETW 	C5H 			//0184 	21C5
		RETW 	44H 			//0185 	2144
		RETW 	20H 			//0186 	2120
		RETW 	59H 			//0187 	2159
		RETW 	DEH 			//0188 	21DE
		RETW 	E1H 			//0189 	21E1
		RETW 	8FH 			//018A 	218F
		RETW 	1BH 			//018B 	211B
		ORG		018CH
		RETW 	A5H 			//018C 	21A5
		RETW 	AFH 			//018D 	21AF
		RETW 	42H 			//018E 	2142
		RETW 	7BH 			//018F 	217B
		RETW 	4EH 			//0190 	214E
		RETW 	CDH 			//0191 	21CD
		RETW 	60H 			//0192 	2160
		RETW 	EBH 			//0193 	21EB
		ORG		0194H
		RETW 	62H 			//0194 	2162
		RETW 	22H 			//0195 	2122
		RETW 	90H 			//0196 	2190
		RETW 	2CH 			//0197 	212C
		RETW 	EFH 			//0198 	21EF
		RETW 	F0H 			//0199 	21F0
		RETW 	C7H 			//019A 	21C7
		RETW 	8DH 			//019B 	218D
		ORG		019CH
		RETW 	D2H 			//019C 	21D2
		RETW 	57H 			//019D 	2157
		RETW 	A1H 			//019E 	21A1
		RETW 	3DH 			//019F 	213D
		RETW 	A7H 			//01A0 	21A7
		STR 	79H 			//01A1 	01F9
		XORWI 	25H 			//01A2 	2625
		BTSS 	STATUS,2 		//01A3 	1D03
		ORG		01A4H
		LJUMP 	1BEH 			//01A4 	39BE
		LDWI 	91H 			//01A5 	2A91
		STR 	76H 			//01A6 	01F6
		LDWI 	59H 			//01A7 	2A59
		STR 	77H 			//01A8 	01F7
		LDWI 	24H 			//01A9 	2A24
		LCALL 	585H 			//01AA 	3585
		LDWI 	24H 			//01AB 	2A24
		ORG		01ACH
		STR 	76H 			//01AC 	01F6
		LDWI 	70H 			//01AD 	2A70
		STR 	77H 			//01AE 	01F7
		LDWI 	27H 			//01AF 	2A27
		LCALL 	585H 			//01B0 	3585
		LDWI 	7H 			//01B1 	2A07
		CLRR 	76H 			//01B2 	0176
		CLRR 	77H 			//01B3 	0177
		ORG		01B4H
		LCALL 	585H 			//01B4 	3585
		LCALL 	1FAH 			//01B5 	31FA
		LCALL 	585H 			//01B6 	3585
		LCALL 	1FFH 			//01B7 	31FF
		LCALL 	585H 			//01B8 	3585
		LDWI 	80H 			//01B9 	2A80
		CLRR 	76H 			//01BA 	0176
		STR 	77H 			//01BB 	01F7
		ORG		01BCH
		LDWI 	7H 			//01BC 	2A07
		LJUMP 	585H 			//01BD 	3D85
		LDR 	79H,0 			//01BE 	0879
		XORWI 	26H 			//01BF 	2626
		BTSS 	STATUS,2 		//01C0 	1D03
		LJUMP 	1DCH 			//01C1 	39DC
		LDWI 	18H 			//01C2 	2A18
		CLRR 	76H 			//01C3 	0176
		ORG		01C4H
		STR 	77H 			//01C4 	01F7
		LDWI 	7H 			//01C5 	2A07
		LCALL 	585H 			//01C6 	3585
		LCALL 	1FAH 			//01C7 	31FA
		LCALL 	585H 			//01C8 	3585
		LDWI 	49H 			//01C9 	2A49
		STR 	76H 			//01CA 	01F6
		LDWI 	7CH 			//01CB 	2A7C
		ORG		01CCH
		STR 	77H 			//01CC 	01F7
		LDWI 	24H 			//01CD 	2A24
		LCALL 	585H 			//01CE 	3585
		LDWI 	8EH 			//01CF 	2A8E
		STR 	76H 			//01D0 	01F6
		LDWI 	11H 			//01D1 	2A11
		STR 	77H 			//01D2 	01F7
		LDWI 	27H 			//01D3 	2A27
		ORG		01D4H
		LCALL 	585H 			//01D4 	3585
		LCALL 	1FFH 			//01D5 	31FF
		LCALL 	585H 			//01D6 	3585
		LDWI 	98H 			//01D7 	2A98
		CLRR 	76H 			//01D8 	0176
		STR 	77H 			//01D9 	01F7
		LDWI 	7H 			//01DA 	2A07
		LJUMP 	585H 			//01DB 	3D85
		ORG		01DCH
		LDR 	79H,0 			//01DC 	0879
		XORWI 	27H 			//01DD 	2627
		BTSS 	STATUS,2 		//01DE 	1D03
		RET		 					//01DF 	0004
		LDWI 	4EH 			//01E0 	2A4E
		CLRR 	76H 			//01E1 	0176
		STR 	77H 			//01E2 	01F7
		LDWI 	7H 			//01E3 	2A07
		ORG		01E4H
		LCALL 	585H 			//01E4 	3585
		LCALL 	1FAH 			//01E5 	31FA
		LCALL 	585H 			//01E6 	3585
		LDWI 	2H 			//01E7 	2A02
		STR 	76H 			//01E8 	01F6
		LDWI 	5EH 			//01E9 	2A5E
		STR 	77H 			//01EA 	01F7
		LDWI 	24H 			//01EB 	2A24
		ORG		01ECH
		LCALL 	585H 			//01EC 	3585
		LDWI 	C6H 			//01ED 	2AC6
		STR 	76H 			//01EE 	01F6
		LDWI 	FH 			//01EF 	2A0F
		STR 	77H 			//01F0 	01F7
		LDWI 	27H 			//01F1 	2A27
		LCALL 	585H 			//01F2 	3585
		LCALL 	1FFH 			//01F3 	31FF
		ORG		01F4H
		LCALL 	585H 			//01F4 	3585
		LDWI 	CEH 			//01F5 	2ACE
		CLRR 	76H 			//01F6 	0176
		STR 	77H 			//01F7 	01F7
		LDWI 	7H 			//01F8 	2A07
		LJUMP 	585H 			//01F9 	3D85
		LDWI 	6CH 			//01FA 	2A6C
		STR 	76H 			//01FB 	01F6
		ORG		01FCH
		LDWI 	90H 			//01FC 	2A90
		STR 	77H 			//01FD 	01F7
		RETW 	8H 			//01FE 	2108
		LDWI 	80H 			//01FF 	2A80
		STR 	76H 			//0200 	01F6
		STR 	77H 			//0201 	01F7
		RETW 	34H 			//0202 	2134

		//;LT8988DRV.C: 396: reTry:
		LDWI 	38H 			//0203 	2A38
		ORG		0204H

		//;LT8988DRV.C: 399: LT8988_WriteReg(0x38, 0x00, 0x00);
		CLRR 	73H 			//0204 	0173
		CLRR 	74H 			//0205 	0174
		LCALL 	542H 			//0206 	3542

		//;LT8988DRV.C: 400: DelayMs(5);
		LDWI 	5H 			//0207 	2A05
		LCALL 	4FFH 			//0208 	34FF

		//;LT8988DRV.C: 401: LT8988_WriteReg(0x38, 0xBC, 0xDF);
		LDWI 	BCH 			//0209 	2ABC
		STR 	73H 			//020A 	01F3
		LDWI 	DFH 			//020B 	2ADF
		ORG		020CH
		STR 	74H 			//020C 	01F4
		LDWI 	38H 			//020D 	2A38
		LCALL 	542H 			//020E 	3542

		//;LT8988DRV.C: 402: DelayMs(5);
		LDWI 	5H 			//020F 	2A05
		LCALL 	4FFH 			//0210 	34FF

		//;LT8988DRV.C: 408: LT8988_WriteReg(8, 0x6C, 0x90);
		LDWI 	6CH 			//0211 	2A6C
		STR 	73H 			//0212 	01F3
		LDWI 	90H 			//0213 	2A90
		ORG		0214H
		STR 	74H 			//0214 	01F4
		LDWI 	8H 			//0215 	2A08
		LCALL 	542H 			//0216 	3542

		//;LT8988DRV.C: 409: LT8988_WriteReg(9, 0x78, 0x30);
		LDWI 	78H 			//0217 	2A78
		STR 	73H 			//0218 	01F3
		LDWI 	30H 			//0219 	2A30
		STR 	74H 			//021A 	01F4
		LDWI 	9H 			//021B 	2A09
		ORG		021CH
		LCALL 	542H 			//021C 	3542

		//;LT8988DRV.C: 411: LT8988_WriteReg(35, 0x03, 0x00);
		LDWI 	3H 			//021D 	2A03
		STR 	73H 			//021E 	01F3
		LDWI 	23H 			//021F 	2A23
		CLRR 	74H 			//0220 	0174
		LCALL 	542H 			//0221 	3542

		//;LT8988DRV.C: 412: LT8988_WriteReg(40, 0x44, 0x02);
		LDWI 	44H 			//0222 	2A44
		STR 	73H 			//0223 	01F3
		ORG		0224H
		LDWI 	2H 			//0224 	2A02
		STR 	74H 			//0225 	01F4
		LDWI 	28H 			//0226 	2A28
		LCALL 	542H 			//0227 	3542

		//;LT8988DRV.C: 413: LT8988_WriteReg(41, 0xb0, 0x00);
		LDWI 	B0H 			//0228 	2AB0
		STR 	73H 			//0229 	01F3
		LDWI 	29H 			//022A 	2A29
		CLRR 	74H 			//022B 	0174
		ORG		022CH
		LCALL 	542H 			//022C 	3542

		//;LT8988DRV.C: 414: LT8988_WriteReg(42, 0xFD, 0xB0);
		LDWI 	FDH 			//022D 	2AFD
		STR 	73H 			//022E 	01F3
		LDWI 	B0H 			//022F 	2AB0
		STR 	74H 			//0230 	01F4
		LDWI 	2AH 			//0231 	2A2A
		LCALL 	542H 			//0232 	3542

		//;LT8988DRV.C: 416: LT8988_WriteReg(28, 0x18, 0x02);
		LDWI 	18H 			//0233 	2A18
		ORG		0234H
		STR 	73H 			//0234 	01F3
		LDWI 	2H 			//0235 	2A02
		STR 	74H 			//0236 	01F4
		LDWI 	1CH 			//0237 	2A1C
		LCALL 	542H 			//0238 	3542

		//;LT8988DRV.C: 418: LT8988_WriteReg(32, 0x48, 0x00);
		LDWI 	48H 			//0239 	2A48
		STR 	73H 			//023A 	01F3
		LDWI 	20H 			//023B 	2A20
		ORG		023CH
		CLRR 	74H 			//023C 	0174
		LCALL 	542H 			//023D 	3542
		LDWI 	2CH 			//023E 	2A2C

		//;LT8988DRV.C: 421: LT8988_WriteReg(44, 0x01, 0x01);
		CLRR 	73H 			//023F 	0173
		INCR	73H,1 			//0240 	09F3
		CLRR 	74H 			//0241 	0174
		INCR	74H,1 			//0242 	09F4
		LCALL 	542H 			//0243 	3542
		ORG		0244H

		//;LT8988DRV.C: 422: LT8988_WriteReg(45, 0x05, 0x52);
		LDWI 	5H 			//0244 	2A05
		STR 	73H 			//0245 	01F3
		LDWI 	52H 			//0246 	2A52
		STR 	74H 			//0247 	01F4
		LDWI 	2DH 			//0248 	2A2D
		LCALL 	542H 			//0249 	3542

		//;LT8988DRV.C: 425: LT8988_WriteReg(52, 0x80, 0x80);
		LDWI 	80H 			//024A 	2A80
		STR 	73H 			//024B 	01F3
		ORG		024CH
		STR 	74H 			//024C 	01F4
		LDWI 	34H 			//024D 	2A34
		LCALL 	542H 			//024E 	3542

		//;LT8988DRV.C: 428: LT8988_ReadReg(0);
		LDWI 	0H 			//024F 	2A00
		LCALL 	4EAH 			//0250 	34EA

		//;LT8988DRV.C: 429: if(_RegH != 0x6F || _RegL != 0XE0)
		LDR 	3CH,0 			//0251 	083C
		XORWI 	6FH 			//0252 	266F
		BTSS 	STATUS,2 		//0253 	1D03
		ORG		0254H
		LJUMP 	203H 			//0254 	3A03
		LDR 	7BH,0 			//0255 	087B
		XORWI 	E0H 			//0256 	26E0
		BTSC 	STATUS,2 		//0257 	1503
		RET		 					//0258 	0004
		LJUMP 	203H 			//0259 	3A03
		STR 	78H 			//025A 	01F8
		XORWI 	25H 			//025B 	2625
		ORG		025CH
		BTSS 	STATUS,2 		//025C 	1D03
		LJUMP 	269H 			//025D 	3A69
		CLRR 	79H 			//025E 	0179
		LDR 	73H,0 			//025F 	0873
		SUBWR 	79H,0 			//0260 	0C79
		BTSC 	STATUS,0 		//0261 	1403
		RET		 					//0262 	0004
		LDR 	79H,0 			//0263 	0879
		ORG		0264H
		ADDWI 	1H 			//0264 	2701
		STR 	FSR 			//0265 	0184
		LCALL 	126H 			//0266 	3126
		LCALL 	287H 			//0267 	3287
		LJUMP 	25FH 			//0268 	3A5F
		LDR 	78H,0 			//0269 	0878
		XORWI 	26H 			//026A 	2626
		BTSS 	STATUS,2 		//026B 	1D03
		ORG		026CH
		LJUMP 	278H 			//026C 	3A78
		CLRR 	79H 			//026D 	0179
		LDR 	73H,0 			//026E 	0873
		SUBWR 	79H,0 			//026F 	0C79
		BTSC 	STATUS,0 		//0270 	1403
		RET		 					//0271 	0004
		LDR 	79H,0 			//0272 	0879
		ADDWI 	28H 			//0273 	2728
		ORG		0274H
		STR 	FSR 			//0274 	0184
		LCALL 	126H 			//0275 	3126
		LCALL 	287H 			//0276 	3287
		LJUMP 	26EH 			//0277 	3A6E
		LDR 	78H,0 			//0278 	0878
		XORWI 	27H 			//0279 	2627
		BTSS 	STATUS,2 		//027A 	1D03
		RET		 					//027B 	0004
		ORG		027CH
		CLRR 	79H 			//027C 	0179
		LDR 	73H,0 			//027D 	0873
		SUBWR 	79H,0 			//027E 	0C79
		BTSC 	STATUS,0 		//027F 	1403
		RET		 					//0280 	0004
		LDR 	79H,0 			//0281 	0879
		ADDWI 	4FH 			//0282 	274F
		STR 	FSR 			//0283 	0184
		ORG		0284H
		LCALL 	126H 			//0284 	3126
		LCALL 	287H 			//0285 	3287
		LJUMP 	27DH 			//0286 	3A7D
		STR 	74H 			//0287 	01F4
		LDR 	79H,0 			//0288 	0879
		ADDWR 	72H,0 			//0289 	0B72
		STR 	75H 			//028A 	01F5
		STR 	FSR 			//028B 	0184
		ORG		028CH
		BCR 	STATUS,7 		//028C 	1383
		LDR 	INDF,0 			//028D 	0800
		XORWR 	74H,0 			//028E 	0474
		STR 	76H 			//028F 	01F6
		LDR 	79H,0 			//0290 	0879
		ADDWR 	72H,0 			//0291 	0B72
		STR 	77H 			//0292 	01F7
		STR 	FSR 			//0293 	0184
		ORG		0294H
		LDR 	76H,0 			//0294 	0876
		STR 	INDF 			//0295 	0180
		INCR	79H,1 			//0296 	09F9
		RET		 					//0297 	0004
		STR 	51H 			//0298 	01D1

		//;main.c: 221: unsigned char i;
		//;main.c: 223: LT8988_ble_rx_start(chanel);
		LCALL 	1A1H 			//0299 	31A1

		//;main.c: 225: for(i = 0; i < 8; i++)
		CLRR 	52H 			//029A 	0152

		//;main.c: 226: {
		//;main.c: 227: LT8988_ReadReg(3);
		LDWI 	3H 			//029B 	2A03
		ORG		029CH
		LCALL 	4EAH 			//029C 	34EA

		//;main.c: 228: if(_RegH & 0x20)
		BTSS 	3CH,5 			//029D 	1EBC
		LJUMP 	2CDH 			//029E 	3ACD

		//;main.c: 229: {
		//;main.c: 230: LT8988_read_ble_fifo(chanel, RXADVDATA, 13);
		LDWI 	40H 			//029F 	2A40
		STR 	4FH 			//02A0 	01CF
		LDWI 	DH 			//02A1 	2A0D
		STR 	50H 			//02A2 	01D0
		LDR 	51H,0 			//02A3 	0851
		ORG		02A4H
		LCALL 	406H 			//02A4 	3406

		//;main.c: 232: if(check_sum(RXADVDATA, 10) == 1)
		LDWI 	AH 			//02A5 	2A0A
		STR 	72H 			//02A6 	01F2
		LDWI 	40H 			//02A7 	2A40
		LCALL 	431H 			//02A8 	3431
		XORWI 	1H 			//02A9 	2601
		BTSS 	STATUS,2 		//02AA 	1D03
		LJUMP 	2C4H 			//02AB 	3AC4
		ORG		02ACH

		//;main.c: 233: {
		//;main.c: 235: if(RXADVDATA[5] == 0x02)
		BCR 	STATUS,5 		//02AC 	1283
		BCR 	STATUS,6 		//02AD 	1303
		LDR 	45H,0 			//02AE 	0845
		XORWI 	2H 			//02AF 	2602
		BTSS 	STATUS,2 		//02B0 	1D03
		LJUMP 	2B4H 			//02B1 	3AB4

		//;main.c: 236: {
		//;main.c: 237: RA7 = 1;
		BSR 	5H,7 			//02B2 	1B85

		//;main.c: 239: }
		LJUMP 	2C2H 			//02B3 	3AC2
		ORG		02B4H

		//;main.c: 240: else if(RXADVDATA[5] == 0x01)
		DECRSZ 	45H,0 		//02B4 	0E45
		LJUMP 	2B8H 			//02B5 	3AB8

		//;main.c: 241: {
		//;main.c: 242: RA7 = 0;
		BCR 	5H,7 			//02B6 	1385

		//;main.c: 244: }
		LJUMP 	2C2H 			//02B7 	3AC2

		//;main.c: 245: else if(RXADVDATA[5] == 0x04)
		LDR 	45H,0 			//02B8 	0845
		XORWI 	4H 			//02B9 	2604
		BTSS 	STATUS,2 		//02BA 	1D03
		LJUMP 	2C2H 			//02BB 	3AC2
		ORG		02BCH

		//;main.c: 246: {
		//;main.c: 248: if( ledsta != RXADVDATA[6])
		LDR 	46H,0 			//02BC 	0846
		XORWR 	3DH,0 			//02BD 	043D
		BTSC 	STATUS,2 		//02BE 	1503
		LJUMP 	2C2H 			//02BF 	3AC2

		//;main.c: 249: {
		//;main.c: 250: RA7 = !RA7;
		LDWI 	80H 			//02C0 	2A80
		XORWR 	5H,1 			//02C1 	0485

		//;main.c: 251: }
		//;main.c: 252: }
		//;main.c: 253: ledsta = RXADVDATA[6];
		LDR 	46H,0 			//02C2 	0846
		STR 	3DH 			//02C3 	01BD
		ORG		02C4H

		//;main.c: 254: }
		//;main.c: 256: i = 9;
		LDWI 	9H 			//02C4 	2A09
		BCR 	STATUS,5 		//02C5 	1283
		BCR 	STATUS,6 		//02C6 	1303
		STR 	52H 			//02C7 	01D2

		//;main.c: 258: rxflag = 1;
		CLRR 	3FH 			//02C8 	013F
		INCR	3FH,1 			//02C9 	09BF

		//;main.c: 259: rxtimeout = 0;
		CLRR 	3AH 			//02CA 	013A
		CLRR 	3BH 			//02CB 	013B
		ORG		02CCH

		//;main.c: 261: }
		LJUMP 	2CFH 			//02CC 	3ACF

		//;main.c: 262: else
		//;main.c: 263: {
		//;main.c: 264: DelayMs(2);
		LDWI 	2H 			//02CD 	2A02
		LCALL 	4FFH 			//02CE 	34FF
		LDWI 	8H 			//02CF 	2A08
		INCR	52H,1 			//02D0 	09D2
		SUBWR 	52H,0 			//02D1 	0C52
		BTSC 	STATUS,0 		//02D2 	1403
		RET		 					//02D3 	0004
		ORG		02D4H
		LJUMP 	29BH 			//02D4 	3A9B
		STR 	75H 			//02D5 	01F5

		//;LT8988DRV.C: 509: unsigned char i;
		//;LT8988DRV.C: 513: LT8988_start();
		LCALL 	593H 			//02D6 	3593

		//;LT8988DRV.C: 514: Send_Byte(0x50);
		LDWI 	50H 			//02D7 	2A50
		LCALL 	310H 			//02D8 	3310

		//;LT8988DRV.C: 515: ack();
		LCALL 	574H 			//02D9 	3574

		//;LT8988DRV.C: 516: Send_Byte(50 | 0X80);
		LDWI 	B2H 			//02DA 	2AB2
		LCALL 	310H 			//02DB 	3310
		ORG		02DCH

		//;LT8988DRV.C: 517: ack();
		LCALL 	574H 			//02DC 	3574

		//;LT8988DRV.C: 518: LT8988_start();
		LCALL 	593H 			//02DD 	3593

		//;LT8988DRV.C: 519: Send_Byte(0x51);
		LDWI 	51H 			//02DE 	2A51
		LCALL 	310H 			//02DF 	3310

		//;LT8988DRV.C: 520: ack();
		LCALL 	574H 			//02E0 	3574

		//;LT8988DRV.C: 522: len = Read_Byte();
		LCALL 	3AEH 			//02E1 	33AE
		STR 	77H 			//02E2 	01F7

		//;LT8988DRV.C: 524: if(len > 15) {
		LDWI 	10H 			//02E3 	2A10
		ORG		02E4H
		SUBWR 	77H,0 			//02E4 	0C77
		BTSS 	STATUS,0 		//02E5 	1C03
		LJUMP 	2E9H 			//02E6 	3AE9

		//;LT8988DRV.C: 525: nack();
		LCALL 	56BH 			//02E7 	356B

		//;LT8988DRV.C: 526: LT8988_stop();
		LJUMP 	58CH 			//02E8 	3D8C

		//;LT8988DRV.C: 528: }
		//;LT8988DRV.C: 529: ack();
		LCALL 	574H 			//02E9 	3574

		//;LT8988DRV.C: 531: pBuf[0] = len;
		LDR 	75H,0 			//02EA 	0875
		STR 	FSR 			//02EB 	0184
		ORG		02ECH
		LDR 	77H,0 			//02EC 	0877
		BCR 	STATUS,7 		//02ED 	1383
		STR 	INDF 			//02EE 	0180

		//;LT8988DRV.C: 532: len = 13;
		LDWI 	DH 			//02EF 	2A0D
		STR 	77H 			//02F0 	01F7

		//;LT8988DRV.C: 533: for(i = 0; i < len; i++)
		CLRR 	76H 			//02F1 	0176
		LDR 	77H,0 			//02F2 	0877
		SUBWR 	76H,0 			//02F3 	0C76
		ORG		02F4H
		BTSC 	STATUS,0 		//02F4 	1403
		LJUMP 	2E7H 			//02F5 	3AE7

		//;LT8988DRV.C: 534: {
		//;LT8988DRV.C: 535: pBuf[i + 1] = Read_Byte();
		LDR 	76H,0 			//02F6 	0876
		ADDWR 	75H,0 			//02F7 	0B75
		STR 	73H 			//02F8 	01F3
		ADDWI 	1H 			//02F9 	2701
		STR 	FSR 			//02FA 	0184
		LCALL 	3AEH 			//02FB 	33AE
		ORG		02FCH
		BCR 	STATUS,7 		//02FC 	1383
		STR 	INDF 			//02FD 	0180

		//;LT8988DRV.C: 536: if(i < len - 1)
		LDR 	77H,0 			//02FE 	0877
		ADDWI 	FFH 			//02FF 	27FF
		STR 	73H 			//0300 	01F3
		LDWI 	FFH 			//0301 	2AFF
		BTSC 	STATUS,0 		//0302 	1403
		LDWI 	0H 			//0303 	2A00
		ORG		0304H
		STR 	74H 			//0304 	01F4
		XORWI 	80H 			//0305 	2680
		SUBWI 	80H 			//0306 	2880
		BTSS 	STATUS,2 		//0307 	1D03
		LJUMP 	30BH 			//0308 	3B0B
		LDR 	73H,0 			//0309 	0873
		SUBWR 	76H,0 			//030A 	0C76
		BTSC 	STATUS,0 		//030B 	1403
		ORG		030CH
		LJUMP 	30EH 			//030C 	3B0E

		//;LT8988DRV.C: 537: {
		//;LT8988DRV.C: 538: ack();
		LCALL 	574H 			//030D 	3574
		INCR	76H,1 			//030E 	09F6
		LJUMP 	2F2H 			//030F 	3AF2
		STR 	72H 			//0310 	01F2

		//;LT8988DRV.C: 87: RC0=0;
		BCR 	7H,0 			//0311 	1007

		//;LT8988DRV.C: 89: if (DATA & 0x80)
		BTSS 	72H,7 			//0312 	1FF2
		LJUMP 	316H 			//0313 	3B16
		ORG		0314H

		//;LT8988DRV.C: 90: RC1=1;
		BSR 	7H,1 			//0314 	1887
		LJUMP 	317H 			//0315 	3B17

		//;LT8988DRV.C: 91: else
		//;LT8988DRV.C: 92: RC1=0;
		BCR 	7H,1 			//0316 	1087

		//;LT8988DRV.C: 95: RC0=1;
		BSR 	7H,0 			//0317 	1807

		//;LT8988DRV.C: 98: RC0=0;
		BCR 	7H,0 			//0318 	1007

		//;LT8988DRV.C: 100: if (DATA & 0x40)
		BTSS 	72H,6 			//0319 	1F72
		LJUMP 	31DH 			//031A 	3B1D

		//;LT8988DRV.C: 101: RC1=1;
		BSR 	7H,1 			//031B 	1887
		ORG		031CH
		LJUMP 	31EH 			//031C 	3B1E

		//;LT8988DRV.C: 102: else
		//;LT8988DRV.C: 103: RC1=0;
		BCR 	7H,1 			//031D 	1087

		//;LT8988DRV.C: 106: RC0=1;
		BSR 	7H,0 			//031E 	1807

		//;LT8988DRV.C: 109: RC0=0;
		BCR 	7H,0 			//031F 	1007

		//;LT8988DRV.C: 111: if (DATA & 0x20)
		BTSS 	72H,5 			//0320 	1EF2
		LJUMP 	324H 			//0321 	3B24

		//;LT8988DRV.C: 112: RC1=1;
		BSR 	7H,1 			//0322 	1887
		LJUMP 	325H 			//0323 	3B25
		ORG		0324H

		//;LT8988DRV.C: 113: else
		//;LT8988DRV.C: 114: RC1=0;
		BCR 	7H,1 			//0324 	1087

		//;LT8988DRV.C: 117: RC0=1;
		BSR 	7H,0 			//0325 	1807

		//;LT8988DRV.C: 120: RC0=0;
		BCR 	7H,0 			//0326 	1007

		//;LT8988DRV.C: 122: if (DATA & 0x10)
		BTSS 	72H,4 			//0327 	1E72
		LJUMP 	32BH 			//0328 	3B2B

		//;LT8988DRV.C: 123: RC1=1;
		BSR 	7H,1 			//0329 	1887
		LJUMP 	32CH 			//032A 	3B2C

		//;LT8988DRV.C: 124: else
		//;LT8988DRV.C: 125: RC1=0;
		BCR 	7H,1 			//032B 	1087
		ORG		032CH

		//;LT8988DRV.C: 128: RC0=1;
		BSR 	7H,0 			//032C 	1807

		//;LT8988DRV.C: 132: RC0=0;
		BCR 	7H,0 			//032D 	1007

		//;LT8988DRV.C: 134: if (DATA & 0x8)
		BTSS 	72H,3 			//032E 	1DF2
		LJUMP 	332H 			//032F 	3B32

		//;LT8988DRV.C: 135: RC1=1;
		BSR 	7H,1 			//0330 	1887
		LJUMP 	333H 			//0331 	3B33

		//;LT8988DRV.C: 136: else
		//;LT8988DRV.C: 137: RC1=0;
		BCR 	7H,1 			//0332 	1087

		//;LT8988DRV.C: 140: RC0=1;
		BSR 	7H,0 			//0333 	1807
		ORG		0334H

		//;LT8988DRV.C: 143: RC0=0;
		BCR 	7H,0 			//0334 	1007

		//;LT8988DRV.C: 145: if (DATA & 0x4)
		BTSS 	72H,2 			//0335 	1D72
		LJUMP 	339H 			//0336 	3B39

		//;LT8988DRV.C: 146: RC1=1;
		BSR 	7H,1 			//0337 	1887
		LJUMP 	33AH 			//0338 	3B3A

		//;LT8988DRV.C: 147: else
		//;LT8988DRV.C: 148: RC1=0;
		BCR 	7H,1 			//0339 	1087

		//;LT8988DRV.C: 151: RC0=1;
		BSR 	7H,0 			//033A 	1807

		//;LT8988DRV.C: 154: RC0=0;
		BCR 	7H,0 			//033B 	1007
		ORG		033CH

		//;LT8988DRV.C: 156: if (DATA & 0x2)
		BTSS 	72H,1 			//033C 	1CF2
		LJUMP 	340H 			//033D 	3B40

		//;LT8988DRV.C: 157: RC1=1;
		BSR 	7H,1 			//033E 	1887
		LJUMP 	341H 			//033F 	3B41

		//;LT8988DRV.C: 158: else
		//;LT8988DRV.C: 159: RC1=0;
		BCR 	7H,1 			//0340 	1087

		//;LT8988DRV.C: 162: RC0=1;
		BSR 	7H,0 			//0341 	1807

		//;LT8988DRV.C: 165: RC0=0;
		BCR 	7H,0 			//0342 	1007

		//;LT8988DRV.C: 167: if (DATA & 0x1)
		BTSS 	72H,0 			//0343 	1C72
		ORG		0344H
		LJUMP 	347H 			//0344 	3B47

		//;LT8988DRV.C: 168: RC1=1;
		BSR 	7H,1 			//0345 	1887
		LJUMP 	348H 			//0346 	3B48

		//;LT8988DRV.C: 169: else
		//;LT8988DRV.C: 170: RC1=0;
		BCR 	7H,1 			//0347 	1087

		//;LT8988DRV.C: 173: RC0=1;
		BSR 	7H,0 			//0348 	1807

		//;LT8988DRV.C: 176: RC0=0;
		BCR 	7H,0 			//0349 	1007
		RET		 					//034A 	0004
		STR 	50H 			//034B 	01D0
		ORG		034CH
		LDWI 	7H 			//034C 	2A07
		CLRR 	76H 			//034D 	0176
		CLRR 	77H 			//034E 	0177
		LCALL 	585H 			//034F 	3585
		LCALL 	1FFH 			//0350 	31FF
		LCALL 	585H 			//0351 	3585
		LDWI 	D6H 			//0352 	2AD6
		STR 	76H 			//0353 	01F6
		ORG		0354H
		LDWI 	BEH 			//0354 	2ABE
		STR 	77H 			//0355 	01F7
		LDWI 	32H 			//0356 	2A32
		LCALL 	585H 			//0357 	3585
		LDWI 	89H 			//0358 	2A89
		STR 	76H 			//0359 	01F6
		LDWI 	8EH 			//035A 	2A8E
		STR 	77H 			//035B 	01F7
		ORG		035CH
		LDWI 	32H 			//035C 	2A32
		LCALL 	585H 			//035D 	3585
		LDR 	50H,0 			//035E 	0850
		STR 	FSR 			//035F 	0184
		BCR 	STATUS,7 		//0360 	1383
		LDR 	INDF,0 			//0361 	0800
		STR 	76H 			//0362 	01F6
		LDR 	50H,0 			//0363 	0850
		ORG		0364H
		LCALL 	37BH 			//0364 	337B
		LCALL 	585H 			//0365 	3585
		LDWI 	2H 			//0366 	2A02
		STR 	4FH 			//0367 	01CF
		LDR 	79H,0 			//0368 	0879
		SUBWR 	4FH,0 			//0369 	0C4F
		BTSC 	STATUS,0 		//036A 	1403
		RET		 					//036B 	0004
		ORG		036CH
		LDR 	4FH,0 			//036C 	084F
		ADDWR 	50H,0 			//036D 	0B50
		STR 	4DH 			//036E 	01CD
		STR 	FSR 			//036F 	0184
		BCR 	STATUS,7 		//0370 	1383
		LDR 	INDF,0 			//0371 	0800
		STR 	76H 			//0372 	01F6
		LDR 	4FH,0 			//0373 	084F
		ORG		0374H
		ADDWR 	50H,0 			//0374 	0B50
		STR 	4EH 			//0375 	01CE
		LCALL 	37BH 			//0376 	337B
		LCALL 	585H 			//0377 	3585
		INCR	4FH,1 			//0378 	09CF
		INCR	4FH,1 			//0379 	09CF
		LJUMP 	368H 			//037A 	3B68
		ADDWI 	1H 			//037B 	2701
		ORG		037CH
		STR 	FSR 			//037C 	0184
		LDR 	INDF,0 			//037D 	0800
		STR 	77H 			//037E 	01F7
		RETW 	32H 			//037F 	2132
		STR 	7AH 			//0380 	01FA
		LDR 	59H,0 			//0381 	0859
		STR 	76H 			//0382 	01F6
		LDR 	58H,0 			//0383 	0858
		ORG		0384H
		LCALL 	BH 			//0384 	300B
		LCALL 	3A8H 			//0385 	33A8
		LCALL 	25AH 			//0386 	325A
		LCALL 	1FAH 			//0387 	31FA
		LCALL 	585H 			//0388 	3585
		LDR 	59H,0 			//0389 	0859
		STR 	79H 			//038A 	01F9
		LDR 	58H,0 			//038B 	0858
		ORG		038CH
		LCALL 	34BH 			//038C 	334B
		LDR 	7AH,0 			//038D 	087A
		XORWI 	25H 			//038E 	2625
		BTSS 	STATUS,2 		//038F 	1D03
		LJUMP 	396H 			//0390 	3B96
		LDWI 	7H 			//0391 	2A07
		CLRR 	76H 			//0392 	0176
		INCR	76H,1 			//0393 	09F6
		ORG		0394H
		CLRR 	77H 			//0394 	0177
		LJUMP 	3A5H 			//0395 	3BA5
		LDR 	7AH,0 			//0396 	087A
		XORWI 	26H 			//0397 	2626
		BTSS 	STATUS,2 		//0398 	1D03
		LJUMP 	39CH 			//0399 	3B9C
		LDWI 	18H 			//039A 	2A18
		LJUMP 	3A1H 			//039B 	3BA1
		ORG		039CH
		LDR 	7AH,0 			//039C 	087A
		XORWI 	27H 			//039D 	2627
		BTSS 	STATUS,2 		//039E 	1D03
		LJUMP 	3A6H 			//039F 	3BA6
		LDWI 	4EH 			//03A0 	2A4E
		CLRR 	76H 			//03A1 	0176
		INCR	76H,1 			//03A2 	09F6
		STR 	77H 			//03A3 	01F7
		ORG		03A4H
		LDWI 	7H 			//03A4 	2A07
		LCALL 	585H 			//03A5 	3585
		LCALL 	3A8H 			//03A6 	33A8
		LJUMP 	25AH 			//03A7 	3A5A
		LDR 	58H,0 			//03A8 	0858
		STR 	72H 			//03A9 	01F2
		LDR 	59H,0 			//03AA 	0859
		STR 	73H 			//03AB 	01F3
		ORG		03ACH
		LDR 	7AH,0 			//03AC 	087A
		RET		 					//03AD 	0004

		//;LT8988DRV.C: 186: unsigned char byte = 0;
		CLRR 	72H 			//03AE 	0172

		//;LT8988DRV.C: 188: RC1=1;
		BCR 	STATUS,5 		//03AF 	1283
		BCR 	STATUS,6 		//03B0 	1303
		BSR 	7H,1 			//03B1 	1887

		//;LT8988DRV.C: 189: TRISC1=1;
		BSR 	STATUS,5 		//03B2 	1A83
		BSR 	7H,1 			//03B3 	1887
		ORG		03B4H

		//;LT8988DRV.C: 213: RC0=0;
		BCR 	STATUS,5 		//03B4 	1283
		BCR 	7H,0 			//03B5 	1007

		//;LT8988DRV.C: 215: RC0=1;
		BSR 	7H,0 			//03B6 	1807

		//;LT8988DRV.C: 217: if ((RC1))
		BTSC 	7H,1 			//03B7 	1487

		//;LT8988DRV.C: 218: {
		//;LT8988DRV.C: 219: byte |= 0x80;
		BSR 	72H,7 			//03B8 	1BF2

		//;LT8988DRV.C: 220: }
		//;LT8988DRV.C: 226: RC0=0;
		BCR 	7H,0 			//03B9 	1007

		//;LT8988DRV.C: 228: RC0=1;
		BSR 	7H,0 			//03BA 	1807

		//;LT8988DRV.C: 230: if ((RC1))
		BTSC 	7H,1 			//03BB 	1487
		ORG		03BCH

		//;LT8988DRV.C: 231: {
		//;LT8988DRV.C: 232: byte |= 0x40;
		BSR 	72H,6 			//03BC 	1B72

		//;LT8988DRV.C: 233: }
		//;LT8988DRV.C: 239: RC0=0;
		BCR 	7H,0 			//03BD 	1007

		//;LT8988DRV.C: 241: RC0=1;
		BSR 	7H,0 			//03BE 	1807

		//;LT8988DRV.C: 243: if ((RC1))
		BTSC 	7H,1 			//03BF 	1487

		//;LT8988DRV.C: 244: {
		//;LT8988DRV.C: 245: byte |= 0x20;
		BSR 	72H,5 			//03C0 	1AF2

		//;LT8988DRV.C: 246: }
		//;LT8988DRV.C: 252: RC0=0;
		BCR 	7H,0 			//03C1 	1007

		//;LT8988DRV.C: 254: RC0=1;
		BSR 	7H,0 			//03C2 	1807

		//;LT8988DRV.C: 256: if ((RC1))
		BTSC 	7H,1 			//03C3 	1487
		ORG		03C4H

		//;LT8988DRV.C: 257: {
		//;LT8988DRV.C: 258: byte |= 0x10;
		BSR 	72H,4 			//03C4 	1A72

		//;LT8988DRV.C: 259: }
		//;LT8988DRV.C: 265: RC0=0;
		BCR 	7H,0 			//03C5 	1007

		//;LT8988DRV.C: 267: RC0=1;
		BSR 	7H,0 			//03C6 	1807

		//;LT8988DRV.C: 269: if ((RC1))
		BTSC 	7H,1 			//03C7 	1487

		//;LT8988DRV.C: 270: {
		//;LT8988DRV.C: 271: byte |= 0x8;
		BSR 	72H,3 			//03C8 	19F2

		//;LT8988DRV.C: 272: }
		//;LT8988DRV.C: 278: RC0=0;
		BCR 	7H,0 			//03C9 	1007

		//;LT8988DRV.C: 280: RC0=1;
		BSR 	7H,0 			//03CA 	1807

		//;LT8988DRV.C: 282: if ((RC1))
		BTSC 	7H,1 			//03CB 	1487
		ORG		03CCH

		//;LT8988DRV.C: 283: {
		//;LT8988DRV.C: 284: byte |= 0x4;
		BSR 	72H,2 			//03CC 	1972

		//;LT8988DRV.C: 285: }
		//;LT8988DRV.C: 291: RC0=0;
		BCR 	7H,0 			//03CD 	1007

		//;LT8988DRV.C: 293: RC0=1;
		BSR 	7H,0 			//03CE 	1807

		//;LT8988DRV.C: 295: if ((RC1))
		BTSC 	7H,1 			//03CF 	1487

		//;LT8988DRV.C: 296: {
		//;LT8988DRV.C: 297: byte |= 0x2;
		BSR 	72H,1 			//03D0 	18F2

		//;LT8988DRV.C: 298: }
		//;LT8988DRV.C: 304: RC0=0;
		BCR 	7H,0 			//03D1 	1007

		//;LT8988DRV.C: 306: RC0=1;
		BSR 	7H,0 			//03D2 	1807

		//;LT8988DRV.C: 308: if ((RC1))
		BTSC 	7H,1 			//03D3 	1487
		ORG		03D4H

		//;LT8988DRV.C: 309: {
		//;LT8988DRV.C: 310: byte |= 0x1;
		BSR 	72H,0 			//03D4 	1872

		//;LT8988DRV.C: 311: }
		//;LT8988DRV.C: 316: RC0=0;
		BCR 	7H,0 			//03D5 	1007

		//;LT8988DRV.C: 318: TRISC1=0;
		BSR 	STATUS,5 		//03D6 	1A83
		BCR 	7H,1 			//03D7 	1087

		//;LT8988DRV.C: 319: return byte;
		LDR 	72H,0 			//03D8 	0872
		RET		 					//03D9 	0004

		//;main.c: 84: OSCCON = 0B01110001;
		LDWI 	71H 			//03DA 	2A71
		BSR 	STATUS,5 		//03DB 	1A83
		ORG		03DCH
		STR 	FH 			//03DC 	018F

		//;main.c: 87: INTCON = 0;
		CLRR 	INTCON 			//03DD 	010B

		//;main.c: 88: PORTA = 0B00000000;
		BCR 	STATUS,5 		//03DE 	1283
		CLRR 	5H 			//03DF 	0105

		//;main.c: 89: TRISA = 0B00000000;
		BSR 	STATUS,5 		//03E0 	1A83
		CLRR 	5H 			//03E1 	0105

		//;main.c: 90: PORTC = 0B00000011;
		LDWI 	3H 			//03E2 	2A03
		BCR 	STATUS,5 		//03E3 	1283
		ORG		03E4H
		STR 	7H 			//03E4 	0187

		//;main.c: 91: TRISC = 0B00000000;
		BSR 	STATUS,5 		//03E5 	1A83
		CLRR 	7H 			//03E6 	0107

		//;main.c: 93: WPUA = 0B00000111;
		LDWI 	7H 			//03E7 	2A07
		STR 	15H 			//03E8 	0195

		//;main.c: 94: WPUC = 0B00000000;
		CLRR 	8H 			//03E9 	0108

		//;main.c: 95: OPTION = 0B10001000;
		LDWI 	88H 			//03EA 	2A88
		STR 	1H 			//03EB 	0181
		ORG		03ECH

		//;main.c: 97: MSCKCON = 0B00000000;
		BCR 	STATUS,5 		//03EC 	1283
		CLRR 	1BH 			//03ED 	011B

		//;main.c: 100: CMCON0 = 0B00000111;
		LDWI 	7H 			//03EE 	2A07
		STR 	19H 			//03EF 	0199

		//;main.c: 104: T1CON = 0B00000000;
		CLRR 	10H 			//03F0 	0110

		//;main.c: 107: TMR1L = 0XBF;
		LDWI 	BFH 			//03F1 	2ABF
		STR 	EH 			//03F2 	018E

		//;main.c: 109: TMR1H = 0XE0;
		LDWI 	E0H 			//03F3 	2AE0
		ORG		03F4H
		STR 	FH 			//03F4 	018F
		LDWI 	10H 			//03F5 	2A10

		//;main.c: 110: TMR1IE = 1;
		BSR 	STATUS,5 		//03F6 	1A83
		BSR 	CH,0 			//03F7 	180C

		//;main.c: 111: TMR1ON = 1;
		BCR 	STATUS,5 		//03F8 	1283
		BSR 	10H,0 			//03F9 	1810

		//;main.c: 112: PEIE = 1;
		BSR 	INTCON,6 		//03FA 	1B0B

		//;main.c: 113: GIE = 1;
		BSR 	INTCON,7 		//03FB 	1B8B
		ORG		03FCH

		//;main.c: 116: ADCON1 = 0B00010000;
		BSR 	STATUS,5 		//03FC 	1A83
		STR 	1FH 			//03FD 	019F

		//;main.c: 118: ADCON1 = 0B01010000;
		LDWI 	50H 			//03FE 	2A50
		STR 	1FH 			//03FF 	019F

		//;main.c: 120: ADCON0 = 0B10001001;
		LDWI 	89H 			//0400 	2A89
		BCR 	STATUS,5 		//0401 	1283
		STR 	1FH 			//0402 	019F

		//;main.c: 124: ANSEL = 0;
		BSR 	STATUS,5 		//0403 	1A83
		ORG		0404H
		CLRR 	11H 			//0404 	0111
		RET		 					//0405 	0004
		STR 	7AH 			//0406 	01FA
		LDWI 	7H 			//0407 	2A07
		CLRR 	76H 			//0408 	0176
		CLRR 	77H 			//0409 	0177
		LCALL 	585H 			//040A 	3585
		LDR 	4FH,0 			//040B 	084F
		ORG		040CH
		LCALL 	59EH 			//040C 	359E
		LDR 	7AH,0 			//040D 	087A
		XORWI 	25H 			//040E 	2625
		BTSS 	STATUS,2 		//040F 	1D03
		LJUMP 	419H 			//0410 	3C19
		LDR 	4FH,0 			//0411 	084F
		STR 	72H 			//0412 	01F2
		LDR 	50H,0 			//0413 	0850
		ORG		0414H
		STR 	73H 			//0414 	01F3
		LDWI 	10H 			//0415 	2A10
		STR 	74H 			//0416 	01F4
		LDR 	7AH,0 			//0417 	087A
		LJUMP 	A5H 			//0418 	38A5
		LDR 	7AH,0 			//0419 	087A
		XORWI 	26H 			//041A 	2626
		BTSS 	STATUS,2 		//041B 	1D03
		ORG		041CH
		LJUMP 	425H 			//041C 	3C25
		LDR 	4FH,0 			//041D 	084F
		STR 	72H 			//041E 	01F2
		LDR 	50H,0 			//041F 	0850
		STR 	73H 			//0420 	01F3
		LDWI 	11H 			//0421 	2A11
		STR 	74H 			//0422 	01F4
		LDR 	7AH,0 			//0423 	087A
		ORG		0424H
		LJUMP 	A5H 			//0424 	38A5
		LDR 	7AH,0 			//0425 	087A
		XORWI 	27H 			//0426 	2627
		BTSS 	STATUS,2 		//0427 	1D03
		RET		 					//0428 	0004
		LDR 	4FH,0 			//0429 	084F
		STR 	72H 			//042A 	01F2
		LDR 	50H,0 			//042B 	0850
		ORG		042CH
		STR 	73H 			//042C 	01F3
		LDWI 	12H 			//042D 	2A12
		STR 	74H 			//042E 	01F4
		LDR 	7AH,0 			//042F 	087A
		LJUMP 	A5H 			//0430 	38A5
		STR 	76H 			//0431 	01F6

		//;LT8988DRV.C: 570: unsigned char sum, i;
		//;LT8988DRV.C: 571: sum = 0;
		CLRR 	75H 			//0432 	0175

		//;LT8988DRV.C: 572: i = 0;
		CLRR 	77H 			//0433 	0177
		ORG		0434H

		//;LT8988DRV.C: 573: for(i = 0; i < len - 1; i++)
		CLRR 	77H 			//0434 	0177
		LDR 	72H,0 			//0435 	0872
		ADDWI 	FFH 			//0436 	27FF
		STR 	73H 			//0437 	01F3
		LDWI 	FFH 			//0438 	2AFF
		BTSC 	STATUS,0 		//0439 	1403
		LDWI 	0H 			//043A 	2A00
		STR 	74H 			//043B 	01F4
		ORG		043CH
		XORWI 	80H 			//043C 	2680
		SUBWI 	80H 			//043D 	2880
		BTSS 	STATUS,2 		//043E 	1D03
		LJUMP 	442H 			//043F 	3C42
		LDR 	73H,0 			//0440 	0873
		SUBWR 	77H,0 			//0441 	0C77
		BTSC 	STATUS,0 		//0442 	1403
		LJUMP 	44DH 			//0443 	3C4D
		ORG		0444H

		//;LT8988DRV.C: 574: {
		//;LT8988DRV.C: 576: sum = buf[i] + sum;
		LDR 	77H,0 			//0444 	0877
		ADDWR 	76H,0 			//0445 	0B76
		STR 	73H 			//0446 	01F3
		STR 	FSR 			//0447 	0184
		BCR 	STATUS,7 		//0448 	1383
		LDR 	INDF,0 			//0449 	0800
		ADDWR 	75H,1 			//044A 	0BF5
		INCR	77H,1 			//044B 	09F7
		ORG		044CH
		LJUMP 	435H 			//044C 	3C35

		//;LT8988DRV.C: 577: }
		//;LT8988DRV.C: 578: if(buf[len - 1] == sum)
		LDR 	72H,0 			//044D 	0872
		ADDWR 	76H,0 			//044E 	0B76
		STR 	73H 			//044F 	01F3
		ADDWI 	FFH 			//0450 	27FF
		STR 	FSR 			//0451 	0184
		BCR 	STATUS,7 		//0452 	1383
		LDR 	INDF,0 			//0453 	0800
		ORG		0454H
		XORWR 	75H,0 			//0454 	0475
		BTSC 	STATUS,2 		//0455 	1503

		//;LT8988DRV.C: 579: {
		//;LT8988DRV.C: 580: return 1;
		RETW 	1H 			//0456 	2101

		//;LT8988DRV.C: 581: }
		//;LT8988DRV.C: 582: return 0;
		RETW 	0H 			//0457 	2100
		STR 	73H 			//0458 	01F3
		CLRR 	74H 			//0459 	0174
		CLRR 	75H 			//045A 	0175
		LDWI 	1H 			//045B 	2A01
		ORG		045CH
		STR 	72H 			//045C 	01F2
		INCR	75H,0 			//045D 	0975
		LJUMP 	461H 			//045E 	3C61
		BCR 	STATUS,0 		//045F 	1003
		RLR 	72H,1 			//0460 	05F2
		ADDWI 	FFH 			//0461 	27FF
		BTSS 	STATUS,2 		//0462 	1D03
		LJUMP 	45FH 			//0463 	3C5F
		ORG		0464H
		LDR 	72H,0 			//0464 	0872
		ANDWR 	73H,0 			//0465 	0273
		BTSC 	STATUS,2 		//0466 	1503
		LJUMP 	475H 			//0467 	3C75
		LDWI 	1H 			//0468 	2A01
		STR 	72H 			//0469 	01F2
		LDR 	75H,0 			//046A 	0875
		SUBWI 	7H 			//046B 	2807
		ORG		046CH
		ADDWI 	1H 			//046C 	2701
		LJUMP 	470H 			//046D 	3C70
		BCR 	STATUS,0 		//046E 	1003
		RLR 	72H,1 			//046F 	05F2
		ADDWI 	FFH 			//0470 	27FF
		BTSS 	STATUS,2 		//0471 	1D03
		LJUMP 	46EH 			//0472 	3C6E
		LDR 	72H,0 			//0473 	0872
		ORG		0474H
		IORWR 	74H,1 			//0474 	03F4
		LDWI 	8H 			//0475 	2A08
		INCR	75H,1 			//0476 	09F5
		SUBWR 	75H,0 			//0477 	0C75
		BTSS 	STATUS,0 		//0478 	1C03
		LJUMP 	45BH 			//0479 	3C5B
		LDR 	74H,0 			//047A 	0874
		RET		 					//047B 	0004
		ORG		047CH

		//;main.c: 46: GIE = 0;
		BCR 	INTCON,7 		//047C 	138B

		//;main.c: 51: if(TMR1IE && TMR1IF)
		BSR 	STATUS,5 		//047D 	1A83
		BCR 	STATUS,6 		//047E 	1303
		BTSS 	CH,0 			//047F 	1C0C
		LJUMP 	496H 			//0480 	3C96
		BCR 	STATUS,5 		//0481 	1283
		BTSS 	CH,0 			//0482 	1C0C
		LJUMP 	496H 			//0483 	3C96
		ORG		0484H
		LDWI 	2FH 			//0484 	2A2F

		//;main.c: 52: {
		//;main.c: 53: TMR1IF = 0;
		BCR 	CH,0 			//0485 	100C

		//;main.c: 54: TMR1L = 0X2F;
		STR 	EH 			//0486 	018E

		//;main.c: 55: TMR1H = 0XF8;
		LDWI 	F8H 			//0487 	2AF8
		STR 	FH 			//0488 	018F

		//;main.c: 57: rxtimeout++;
		INCR	3AH,1 			//0489 	09BA
		BTSC 	STATUS,2 		//048A 	1503
		INCR	3BH,1 			//048B 	09BB
		ORG		048CH

		//;main.c: 59: if(rxtimeout > 4000)
		LDWI 	FH 			//048C 	2A0F
		SUBWR 	3BH,0 			//048D 	0C3B
		LDWI 	A1H 			//048E 	2AA1
		BTSC 	STATUS,2 		//048F 	1503
		SUBWR 	3AH,0 			//0490 	0C3A
		BTSS 	STATUS,0 		//0491 	1C03
		LJUMP 	496H 			//0492 	3C96

		//;main.c: 60: {
		//;main.c: 61: rxtimeout = 0;
		CLRR 	3AH 			//0493 	013A
		ORG		0494H
		CLRR 	3BH 			//0494 	013B

		//;main.c: 62: lt8988_work_sta = SCAN;
		CLRR 	3EH 			//0495 	013E

		//;main.c: 64: }
		//;main.c: 66: }
		//;main.c: 68: GIE = 1;
		BSR 	INTCON,7 		//0496 	1B8B
		LDR 	71H,0 			//0497 	0871
		STR 	PCLATH 			//0498 	018A
		SWAPR 	70H,0 			//0499 	0770
		STR 	STATUS 			//049A 	0183
		SWAPR 	7EH,1 			//049B 	07FE
		ORG		049CH
		SWAPR 	7EH,0 			//049C 	077E
		RETI		 			//049D 	0009

		//;main.c: 206: LT8988_ble_tx_enable();
		LCALL 	533H 			//049E 	3533

		//;main.c: 207: LT8988_ble_tx_start(37, PDUDATA, 26);
		LDWI 	20H 			//049F 	2A20
		STR 	58H 			//04A0 	01D8
		LDWI 	1AH 			//04A1 	2A1A
		STR 	59H 			//04A2 	01D9
		LDWI 	25H 			//04A3 	2A25
		ORG		04A4H
		LCALL 	380H 			//04A4 	3380

		//;main.c: 208: DelayMs(3);
		LDWI 	3H 			//04A5 	2A03
		LCALL 	4FFH 			//04A6 	34FF

		//;main.c: 209: LT8988_ble_tx_start(38, PDUDATA, 26);
		LDWI 	20H 			//04A7 	2A20
		STR 	58H 			//04A8 	01D8
		LDWI 	1AH 			//04A9 	2A1A
		STR 	59H 			//04AA 	01D9
		LDWI 	26H 			//04AB 	2A26
		ORG		04ACH
		LCALL 	380H 			//04AC 	3380

		//;main.c: 210: DelayMs(3);
		LDWI 	3H 			//04AD 	2A03
		LCALL 	4FFH 			//04AE 	34FF

		//;main.c: 211: LT8988_ble_tx_start(39, PDUDATA, 26);
		LDWI 	20H 			//04AF 	2A20
		STR 	58H 			//04B0 	01D8
		LDWI 	1AH 			//04B1 	2A1A
		STR 	59H 			//04B2 	01D9
		LDWI 	27H 			//04B3 	2A27
		ORG		04B4H
		LCALL 	380H 			//04B4 	3380

		//;main.c: 212: DelayMs(3);
		LDWI 	3H 			//04B5 	2A03
		LCALL 	4FFH 			//04B6 	34FF

		//;main.c: 213: RA6 = !RA6;
		LDWI 	40H 			//04B7 	2A40
		XORWR 	5H,1 			//04B8 	0485
		RET		 					//04B9 	0004
		RETW 	2H 			//04BA 	2102
		RETW 	15H 			//04BB 	2115
		ORG		04BCH
		RETW 	0H 			//04BC 	2100
		RETW 	0H 			//04BD 	2100
		RETW 	0H 			//04BE 	2100
		RETW 	0H 			//04BF 	2100
		RETW 	0H 			//04C0 	2100
		RETW 	0H 			//04C1 	2100
		RETW 	2H 			//04C2 	2102
		RETW 	1H 			//04C3 	2101
		ORG		04C4H
		RETW 	5H 			//04C4 	2105
		RETW 	3H 			//04C5 	2103
		RETW 	19H 			//04C6 	2119
		RETW 	C1H 			//04C7 	21C1
		RETW 	3H 			//04C8 	2103
		RETW 	7H 			//04C9 	2107
		RETW 	16H 			//04CA 	2116
		RETW 	11H 			//04CB 	2111
		ORG		04CCH
		RETW 	11H 			//04CC 	2111
		RETW 	11H 			//04CD 	2111
		RETW 	B0H 			//04CE 	21B0
		RETW 	B0H 			//04CF 	21B0
		RETW 	B0H 			//04D0 	21B0
		RETW 	0H 			//04D1 	2100
		RETW 	0H 			//04D2 	2100
		RETW 	0H 			//04D3 	2100
		ORG		04D4H

		//;main.c: 132: Init();
		LCALL 	3DAH 			//04D4 	33DA

		//;main.c: 134: LT8988_INIT();
		LCALL 	203H 			//04D5 	3203

		//;main.c: 135: write_sync();
		LCALL 	55FH 			//04D6 	355F

		//;main.c: 157: lt8988_work_sta = SCAN;
		CLRR 	3EH 			//04D7 	013E
		LJUMP 	4E3H 			//04D8 	3CE3

		//;main.c: 163: {
		//;main.c: 165: rxflag = 0;
		CLRR 	3FH 			//04D9 	013F

		//;main.c: 167: lt8988_ble_tx();
		LCALL 	49EH 			//04DA 	349E

		//;main.c: 168: lt8988_ble_rx();
		LCALL 	551H 			//04DB 	3551
		ORG		04DCH

		//;main.c: 169: if(rxflag == 1)
		DECRSZ 	3FH,0 		//04DC 	0E3F
		LJUMP 	4E3H 			//04DD 	3CE3

		//;main.c: 170: {
		//;main.c: 171: rxflag = 0;
		CLRR 	3FH 			//04DE 	013F

		//;main.c: 172: rxtimeout = 0;
		CLRR 	3AH 			//04DF 	013A
		CLRR 	3BH 			//04E0 	013B

		//;main.c: 173: lt8988_work_sta = RXBLE;
		CLRR 	3EH 			//04E1 	013E
		INCR	3EH,1 			//04E2 	09BE

		//;main.c: 160: {
		//;main.c: 162: if(lt8988_work_sta == SCAN)
		LDR 	3EH,1 			//04E3 	08BE
		ORG		04E4H
		BTSC 	STATUS,2 		//04E4 	1503
		LJUMP 	4D9H 			//04E5 	3CD9

		//;main.c: 178: else if(lt8988_work_sta == RXBLE)
		DECRSZ 	3EH,0 		//04E6 	0E3E
		LJUMP 	4E3H 			//04E7 	3CE3

		//;main.c: 179: {
		//;main.c: 181: lt8988_ble_rx();
		LCALL 	551H 			//04E8 	3551
		LJUMP 	4E3H 			//04E9 	3CE3
		STR 	73H 			//04EA 	01F3

		//;LT8988DRV.C: 359: LT8988_start();
		LCALL 	593H 			//04EB 	3593
		ORG		04ECH

		//;LT8988DRV.C: 360: Send_Byte(0x50);
		LDWI 	50H 			//04EC 	2A50
		LCALL 	310H 			//04ED 	3310

		//;LT8988DRV.C: 361: ack();
		LCALL 	574H 			//04EE 	3574

		//;LT8988DRV.C: 362: Send_Byte(reg | 0X80);
		LDR 	73H,0 			//04EF 	0873
		IORWI 	80H 			//04F0 	2580
		LCALL 	310H 			//04F1 	3310

		//;LT8988DRV.C: 363: ack();
		LCALL 	574H 			//04F2 	3574

		//;LT8988DRV.C: 364: LT8988_start();
		LCALL 	593H 			//04F3 	3593
		ORG		04F4H

		//;LT8988DRV.C: 365: Send_Byte(0x51);
		LDWI 	51H 			//04F4 	2A51
		LCALL 	310H 			//04F5 	3310

		//;LT8988DRV.C: 366: ack();
		LCALL 	574H 			//04F6 	3574

		//;LT8988DRV.C: 368: _RegH = Read_Byte();
		LCALL 	3AEH 			//04F7 	33AE
		BCR 	STATUS,5 		//04F8 	1283
		STR 	3CH 			//04F9 	01BC

		//;LT8988DRV.C: 369: ack();
		LCALL 	574H 			//04FA 	3574

		//;LT8988DRV.C: 370: _RegL = Read_Byte();
		LCALL 	3AEH 			//04FB 	33AE
		ORG		04FCH
		STR 	7BH 			//04FC 	01FB

		//;LT8988DRV.C: 371: nack();
		LCALL 	56BH 			//04FD 	356B

		//;LT8988DRV.C: 372: LT8988_stop();
		LJUMP 	58CH 			//04FE 	3D8C
		STR 	74H 			//04FF 	01F4

		//;LT8988DRV.C: 381: unsigned int dly;
		//;LT8988DRV.C: 382: while(Tms)
		LDR 	74H,1 			//0500 	08F4
		BTSC 	STATUS,2 		//0501 	1503
		RET		 					//0502 	0004
		LDWI 	8AH 			//0503 	2A8A
		ORG		0504H

		//;LT8988DRV.C: 383: {
		//;LT8988DRV.C: 384: Tms--;
		DECR 	74H,1 			//0504 	0DF4

		//;LT8988DRV.C: 385: dly = 650;
		STR 	72H 			//0505 	01F2
		LDWI 	2H 			//0506 	2A02
		STR 	73H 			//0507 	01F3

		//;LT8988DRV.C: 386: while(dly) dly--;
		LDR 	73H,0 			//0508 	0873
		IORWR 	72H,0 			//0509 	0372
		BTSC 	STATUS,2 		//050A 	1503
		LJUMP 	500H 			//050B 	3D00
		ORG		050CH
		LDWI 	1H 			//050C 	2A01
		SUBWR 	72H,1 			//050D 	0CF2
		LDWI 	0H 			//050E 	2A00
		BTSS 	STATUS,0 		//050F 	1C03
		DECR 	73H,1 			//0510 	0DF3
		SUBWR 	73H,1 			//0511 	0CF3
		LJUMP 	508H 			//0512 	3D08
		LDWI 	3AH 			//0513 	2A3A
		ORG		0514H
		CLRR 	7BH 			//0514 	017B
		BCR 	STATUS,7 		//0515 	1383
		STR 	FSR 			//0516 	0184
		LDWI 	4DH 			//0517 	2A4D
		LCALL 	57DH 			//0518 	357D
		LDWI 	3AH 			//0519 	2A3A
		STR 	7DH 			//051A 	01FD
		LDWI 	4H 			//051B 	2A04
		ORG		051CH
		STR 	7EH 			//051C 	01FE
		LDWI 	BAH 			//051D 	2ABA
		STR 	7FH 			//051E 	01FF
		LDWI 	20H 			//051F 	2A20
		STR 	FSR 			//0520 	0184
		LCALL 	528H 			//0521 	3528
		CLRR 	STATUS 			//0522 	0103
		LJUMP 	4D4H 			//0523 	3CD4
		ORG		0524H
		LDR 	7EH,0 			//0524 	087E
		STR 	PCLATH 			//0525 	018A
		LDR 	7FH,0 			//0526 	087F
		STR 	PCL 			//0527 	0182
		LCALL 	524H 			//0528 	3524
		STR 	INDF 			//0529 	0180
		INCR	FSR,1 			//052A 	0984
		LDR 	FSR,0 			//052B 	0804
		ORG		052CH
		XORWR 	7DH,0 			//052C 	047D
		BTSC 	STATUS,2 		//052D 	1503
		RETW 	0H 			//052E 	2100
		INCR	7FH,1 			//052F 	09FF
		BTSC 	STATUS,2 		//0530 	1503
		INCR	7EH,1 			//0531 	09FE
		LJUMP 	528H 			//0532 	3D28
		LDWI 	48H 			//0533 	2A48
		ORG		0534H
		STR 	76H 			//0534 	01F6
		LDWI 	20H 			//0535 	2A20
		CLRR 	77H 			//0536 	0177
		LCALL 	585H 			//0537 	3585
		LDWI 	AAH 			//0538 	2AAA
		STR 	76H 			//0539 	01F6
		STR 	77H 			//053A 	01F7
		LDWI 	24H 			//053B 	2A24
		ORG		053CH
		LCALL 	585H 			//053C 	3585
		LDWI 	AAH 			//053D 	2AAA
		STR 	76H 			//053E 	01F6
		STR 	77H 			//053F 	01F7
		LDWI 	27H 			//0540 	2A27
		LJUMP 	585H 			//0541 	3D85
		STR 	75H 			//0542 	01F5

		//;LT8988DRV.C: 345: LT8988_start();
		LCALL 	593H 			//0543 	3593
		ORG		0544H

		//;LT8988DRV.C: 346: Send_Byte(0x50);
		LDWI 	50H 			//0544 	2A50
		LCALL 	310H 			//0545 	3310

		//;LT8988DRV.C: 347: ack();
		LCALL 	574H 			//0546 	3574

		//;LT8988DRV.C: 348: Send_Byte(reg);
		LDR 	75H,0 			//0547 	0875
		LCALL 	310H 			//0548 	3310

		//;LT8988DRV.C: 349: ack();
		LCALL 	574H 			//0549 	3574

		//;LT8988DRV.C: 350: Send_Byte(H);
		LDR 	73H,0 			//054A 	0873
		LCALL 	310H 			//054B 	3310
		ORG		054CH

		//;LT8988DRV.C: 351: ack();
		LCALL 	574H 			//054C 	3574

		//;LT8988DRV.C: 352: Send_Byte(L);
		LDR 	74H,0 			//054D 	0874
		LCALL 	310H 			//054E 	3310

		//;LT8988DRV.C: 353: ack();
		LCALL 	574H 			//054F 	3574

		//;LT8988DRV.C: 354: LT8988_stop();
		LJUMP 	58CH 			//0550 	3D8C

		//;main.c: 277: unsigned char i;
		//;main.c: 279: LT8988_ble_rx_enable();
		LCALL 	599H 			//0551 	3599

		//;main.c: 281: for(i = 0; i < 5; i++)
		CLRR 	53H 			//0552 	0153

		//;main.c: 282: {
		//;main.c: 283: ble_chanel_scan(37);
		LDWI 	25H 			//0553 	2A25
		ORG		0554H
		LCALL 	298H 			//0554 	3298

		//;main.c: 284: ble_chanel_scan(38);
		LDWI 	26H 			//0555 	2A26
		LCALL 	298H 			//0556 	3298

		//;main.c: 285: ble_chanel_scan(39);
		LDWI 	27H 			//0557 	2A27
		LCALL 	298H 			//0558 	3298
		LDWI 	5H 			//0559 	2A05
		INCR	53H,1 			//055A 	09D3
		SUBWR 	53H,0 			//055B 	0C53
		ORG		055CH
		BTSC 	STATUS,0 		//055C 	1403
		RET		 					//055D 	0004
		LJUMP 	553H 			//055E 	3D53

		//;LT8988DRV.C: 482: LT8988_WriteReg(36, 0xAA, 0x55 );
		LDWI 	AAH 			//055F 	2AAA
		STR 	73H 			//0560 	01F3
		LDWI 	55H 			//0561 	2A55
		STR 	74H 			//0562 	01F4
		LDWI 	24H 			//0563 	2A24
		ORG		0564H
		LCALL 	542H 			//0564 	3542

		//;LT8988DRV.C: 483: LT8988_WriteReg(39, 0x33, 0x77 );
		LDWI 	33H 			//0565 	2A33
		STR 	73H 			//0566 	01F3
		LDWI 	77H 			//0567 	2A77
		STR 	74H 			//0568 	01F4
		LDWI 	27H 			//0569 	2A27
		LJUMP 	542H 			//056A 	3D42

		//;LT8988DRV.C: 332: RC1=1;
		BCR 	STATUS,5 		//056B 	1283
		ORG		056CH
		BCR 	STATUS,6 		//056C 	1303
		BSR 	7H,1 			//056D 	1887

		//;LT8988DRV.C: 334: RC0=1;
		BSR 	7H,0 			//056E 	1807

		//;LT8988DRV.C: 335: _nop();
		NOP		 					//056F 	0000

		//;LT8988DRV.C: 336: RC0=0;
		BCR 	STATUS,5 		//0570 	1283
		BCR 	STATUS,6 		//0571 	1303
		BCR 	7H,0 			//0572 	1007
		RET		 					//0573 	0004
		ORG		0574H

		//;LT8988DRV.C: 324: RC1=0;
		BCR 	STATUS,5 		//0574 	1283
		BCR 	STATUS,6 		//0575 	1303
		BCR 	7H,1 			//0576 	1087

		//;LT8988DRV.C: 326: RC0=1;
		BSR 	7H,0 			//0577 	1807

		//;LT8988DRV.C: 327: _nop();
		NOP		 					//0578 	0000

		//;LT8988DRV.C: 328: RC0=0;
		BCR 	STATUS,5 		//0579 	1283
		BCR 	STATUS,6 		//057A 	1303
		BCR 	7H,0 			//057B 	1007
		ORG		057CH
		RET		 					//057C 	0004
		CLRWDT	 			//057D 	0001
		CLRR 	INDF 			//057E 	0100
		INCR	FSR,1 			//057F 	0984
		XORWR 	FSR,0 			//0580 	0404
		BTSC 	STATUS,2 		//0581 	1503
		RETW 	0H 			//0582 	2100
		XORWR 	FSR,0 			//0583 	0404
		ORG		0584H
		LJUMP 	57EH 			//0584 	3D7E
		STR 	78H 			//0585 	01F8

		//;BLE_IIC.C: 4: LT8988_WriteReg(reg, first,second);
		LDR 	76H,0 			//0586 	0876
		STR 	73H 			//0587 	01F3
		LDR 	77H,0 			//0588 	0877
		STR 	74H 			//0589 	01F4
		LDR 	78H,0 			//058A 	0878
		LJUMP 	542H 			//058B 	3D42
		ORG		058CH

		//;LT8988DRV.C: 54: RC0=0;
		BCR 	7H,0 			//058C 	1007

		//;LT8988DRV.C: 56: RC1=0;
		BCR 	7H,1 			//058D 	1087

		//;LT8988DRV.C: 58: RC0=1;
		BSR 	7H,0 			//058E 	1807

		//;LT8988DRV.C: 60: RC1=1;
		BSR 	7H,1 			//058F 	1887

		//;LT8988DRV.C: 62: RC0=0;
		BCR 	7H,0 			//0590 	1007

		//;LT8988DRV.C: 64: RC0=1;
		BSR 	7H,0 			//0591 	1807
		RET		 					//0592 	0004

		//;LT8988DRV.C: 41: RC1=1;
		BCR 	STATUS,5 		//0593 	1283
		ORG		0594H
		BSR 	7H,1 			//0594 	1887

		//;LT8988DRV.C: 42: RC0=1;
		BSR 	7H,0 			//0595 	1807

		//;LT8988DRV.C: 45: RC1=0;
		BCR 	7H,1 			//0596 	1087

		//;LT8988DRV.C: 48: RC0=0;
		BCR 	7H,0 			//0597 	1007
		RET		 					//0598 	0004
		LDWI 	4AH 			//0599 	2A4A
		STR 	76H 			//059A 	01F6
		LDWI 	20H 			//059B 	2A20
		ORG		059CH
		CLRR 	77H 			//059C 	0177
		LJUMP 	585H 			//059D 	3D85
		STR 	78H 			//059E 	01F8

		//;BLE_IIC.C: 10: LT8988_ReadBUF(buf);
		LDR 	78H,0 			//059F 	0878
		LJUMP 	2D5H 			//05A0 	3AD5
			END
