

HI-TECH Software PIC PRO Macro Assembler V9.83 build 10920 
                                                                                               Wed Dec 04 19:36:39 2019

HI-TECH Software Omniscient Code Generator (PRO mode) build 10920
     1                           	processor	16F685
     2                           	opt	pw 120
     3                           	opt	pm
     4                           	psect	idataBANK0,global,class=CODE,delta=2
     5                           	psect	strings,global,class=STRING,delta=2
     6                           	psect	cinit,global,class=CODE,delta=2
     7                           	psect	bssCOMMON,global,class=COMMON,space=1,delta=1
     8                           	psect	bssBANK0,global,class=BANK0,space=1,delta=1
     9                           	psect	dataBANK0,global,class=BANK0,space=1,delta=1
    10                           	psect	clrtext,global,class=CODE,delta=2
    11                           	psect	inittext,global,class=CODE,delta=2
    12                           	psect	cstackCOMMON,global,class=COMMON,space=1,delta=1
    13                           	psect	cstackBANK0,global,class=BANK0,space=1,delta=1
    14                           	psect	maintext,global,class=CODE,delta=2
    15                           	psect	text931,local,class=CODE,delta=2
    16                           	psect	text932,local,class=CODE,delta=2
    17                           	psect	text933,local,class=CODE,delta=2
    18                           	psect	text934,local,class=CODE,delta=2
    19                           	psect	text935,local,class=CODE,delta=2
    20                           	psect	text936,local,class=CODE,delta=2
    21                           	psect	text937,local,class=CODE,delta=2
    22                           	psect	text938,local,class=CODE,delta=2
    23                           	psect	text939,local,class=CODE,delta=2
    24                           	psect	text940,local,class=CODE,delta=2
    25                           	psect	text941,local,class=CODE,delta=2
    26                           	psect	text942,local,class=CODE,delta=2
    27                           	psect	text943,local,class=CODE,delta=2
    28                           	psect	text944,local,class=CODE,delta=2
    29                           	psect	text945,local,class=CODE,delta=2
    30                           	psect	text946,local,class=CODE,delta=2
    31                           	psect	text947,local,class=CODE,delta=2
    32                           	psect	text948,local,class=CODE,delta=2
    33                           	psect	text949,local,class=CODE,delta=2
    34                           	psect	text950,local,class=CODE,delta=2
    35                           	psect	text951,local,class=CODE,delta=2
    36                           	psect	text952,local,class=CODE,delta=2
    37                           	psect	text953,local,class=CODE,delta=2
    38                           	psect	text954,local,class=CODE,delta=2
    39                           	psect	text955,local,class=CODE,delta=2
    40                           	psect	text956,local,class=CODE,delta=2
    41                           	psect	text957,local,class=CODE,delta=2
    42                           	psect	text958,local,class=CODE,delta=2
    43                           	psect	text959,local,class=CODE,delta=2
    44                           	psect	text960,local,class=CODE,delta=2
    45                           	psect	intentry,global,class=CODE,delta=2
    46                           	psect	text961,local,class=CODE,delta=2
    47                           	psect	pa_nodes,global,class=CODE,delta=2
    48                           	dabs	1,0x19D,1
    49                           	dabs	1,0x19E,1
    50                           	dabs	1,0x19E,1
    51                           	dabs	1,0x19E,1
    52                           	dabs	1,0x18C,1
    53                           	dabs	1,0x19E,1
    54                           	dabs	1,0x19E,1
    55                           	dabs	1,0x19E,1
    56                           	dabs	1,0x19E,1
    57                           	dabs	1,0x19D,1
    58                           	dabs	1,0x19D,1
    59                           	dabs	1,0x19D,1
    60                           	dabs	1,0x19D,1
    61                           	dabs	1,0x19D,1
    62                           	dabs	1,0x18C,1
    63                           	dabs	1,0x7E,2
    64  000A                     
    65                           	psect	idataBANK0
    66  04BA                     __pidataBANK0:	
    67                           
    68                           ;initializer for _PDUDATA
    69  04BA  3402               	retlw	2
    70  04BB  3415               	retlw	21
    71  04BC  3400               	retlw	0
    72  04BD  3400               	retlw	0
    73  04BE  3400               	retlw	0
    74  04BF  3400               	retlw	0
    75  04C0  3400               	retlw	0
    76  04C1  3400               	retlw	0
    77  04C2  3402               	retlw	2
    78  04C3  3401               	retlw	1
    79  04C4  3405               	retlw	5
    80  04C5  3403               	retlw	3
    81  04C6  3419               	retlw	25
    82  04C7  34C1               	retlw	193
    83  04C8  3403               	retlw	3
    84  04C9  3407               	retlw	7
    85  04CA  3416               	retlw	22
    86  04CB  3411               	retlw	17
    87  04CC  3411               	retlw	17
    88  04CD  3411               	retlw	17
    89  04CE  34B0               	retlw	176
    90  04CF  34B0               	retlw	176
    91  04D0  34B0               	retlw	176
    92  04D1  3400               	retlw	0
    93  04D2  3400               	retlw	0
    94  04D3  3400               	retlw	0
    95                           
    96                           	psect	strings
    97  0126                     __pstrings:	
    98  0126                     stringtab:	
    99                           ;	global	stringdir,stringtab,__stringbase
   100                           
   101  0126                     stringcode:	
   102                           ;	String table - string pointers are 1 byte each
   103                           
   104  0126                     stringdir:	
   105  0126  3001               	movlw	high stringdir
   106  0127  008A               	movwf	10
   107  0128  0804               	movf	4,w
   108  0129  0A84               	incf	4,f
   109  012A  0782               	addwf	2,f
   110  012B                     __stringbase:	
   111  012B  3400               	retlw	0
   112  012C                     _WHITE_INDEX37:	
   113  012C  348D               	retlw	141
   114  012D  34D2               	retlw	210
   115  012E  3457               	retlw	87
   116  012F  34A1               	retlw	161
   117  0130  343D               	retlw	61
   118  0131  34A7               	retlw	167
   119  0132  3466               	retlw	102
   120  0133  34B0               	retlw	176
   121  0134  3475               	retlw	117
   122  0135  3431               	retlw	49
   123  0136  3411               	retlw	17
   124  0137  3448               	retlw	72
   125  0138  3496               	retlw	150
   126  0139  3477               	retlw	119
   127  013A  34F8               	retlw	248
   128  013B  34E3               	retlw	227
   129  013C  3446               	retlw	70
   130  013D  34E9               	retlw	233
   131  013E  34AB               	retlw	171
   132  013F  34D0               	retlw	208
   133  0140  349E               	retlw	158
   134  0141  3453               	retlw	83
   135  0142  3433               	retlw	51
   136  0143  34D8               	retlw	216
   137  0144  34BA               	retlw	186
   138  0145  3498               	retlw	152
   139  0146  3408               	retlw	8
   140  0147  3424               	retlw	36
   141  0148  34CB               	retlw	203
   142  0149  343B               	retlw	59
   143  014A  34FC               	retlw	252
   144  014B  3471               	retlw	113
   145  014C  34A3               	retlw	163
   146  014D  34F4               	retlw	244
   147  014E  3455               	retlw	85
   148  014F  3468               	retlw	104
   149  0150  34CF               	retlw	207
   150  0151  34A9               	retlw	169
   151  0152  3419               	retlw	25
   152  0153                     _WHITE_INDEX38:	
   153  0153  34D6               	retlw	214
   154  0154  34C5               	retlw	197
   155  0155  3444               	retlw	68
   156  0156  3420               	retlw	32
   157  0157  3459               	retlw	89
   158  0158  34DE               	retlw	222
   159  0159  34E1               	retlw	225
   160  015A  348F               	retlw	143
   161  015B  341B               	retlw	27
   162  015C  34A5               	retlw	165
   163  015D  34AF               	retlw	175
   164  015E  3442               	retlw	66
   165  015F  347B               	retlw	123
   166  0160  344E               	retlw	78
   167  0161  34CD               	retlw	205
   168  0162  3460               	retlw	96
   169  0163  34EB               	retlw	235
   170  0164  3462               	retlw	98
   171  0165  3422               	retlw	34
   172  0166  3490               	retlw	144
   173  0167  342C               	retlw	44
   174  0168  34EF               	retlw	239
   175  0169  34F0               	retlw	240
   176  016A  34C7               	retlw	199
   177  016B  348D               	retlw	141
   178  016C  34D2               	retlw	210
   179  016D  3457               	retlw	87
   180  016E  34A1               	retlw	161
   181  016F  343D               	retlw	61
   182  0170  34A7               	retlw	167
   183  0171  3466               	retlw	102
   184  0172  34B0               	retlw	176
   185  0173  3475               	retlw	117
   186  0174  3431               	retlw	49
   187  0175  3411               	retlw	17
   188  0176  3448               	retlw	72
   189  0177  3496               	retlw	150
   190  0178  3477               	retlw	119
   191  0179  34F8               	retlw	248
   192  017A                     _WHITE_INDEX39:	
   193  017A  341F               	retlw	31
   194  017B  3437               	retlw	55
   195  017C  344A               	retlw	74
   196  017D  345F               	retlw	95
   197  017E  3485               	retlw	133
   198  017F  34F6               	retlw	246
   199  0180  349C               	retlw	156
   200  0181  349A               	retlw	154
   201  0182  34C1               	retlw	193
   202  0183  34D6               	retlw	214
   203  0184  34C5               	retlw	197
   204  0185  3444               	retlw	68
   205  0186  3420               	retlw	32
   206  0187  3459               	retlw	89
   207  0188  34DE               	retlw	222
   208  0189  34E1               	retlw	225
   209  018A  348F               	retlw	143
   210  018B  341B               	retlw	27
   211  018C  34A5               	retlw	165
   212  018D  34AF               	retlw	175
   213  018E  3442               	retlw	66
   214  018F  347B               	retlw	123
   215  0190  344E               	retlw	78
   216  0191  34CD               	retlw	205
   217  0192  3460               	retlw	96
   218  0193  34EB               	retlw	235
   219  0194  3462               	retlw	98
   220  0195  3422               	retlw	34
   221  0196  3490               	retlw	144
   222  0197  342C               	retlw	44
   223  0198  34EF               	retlw	239
   224  0199  34F0               	retlw	240
   225  019A  34C7               	retlw	199
   226  019B  348D               	retlw	141
   227  019C  34D2               	retlw	210
   228  019D  3457               	retlw	87
   229  019E  34A1               	retlw	161
   230  019F  343D               	retlw	61
   231  01A0  34A7               	retlw	167
   232  019D                     _PSTRCON	set	413	;_PSTRCON
   233  019E                     _SRCON	set	414	;_SRCON
   234  0CF5                     _C1SEN	set	3317	;_C1SEN
   235  0CF4                     _C2REN	set	3316	;_C2REN
   236  0C67                     _EEPGD	set	3175	;_EEPGD
   237  0CF2                     _PULSR	set	3314	;_PULSR
   238  0CF3                     _PULSS	set	3315	;_PULSS
   239  0CF6                     _SR0	set	3318	;_SR0
   240  0CF7                     _SR1	set	3319	;_SR1
   241  0CE8                     _STRA	set	3304	;_STRA
   242  0CE9                     _STRB	set	3305	;_STRB
   243  0CEA                     _STRC	set	3306	;_STRC
   244  0CEB                     _STRD	set	3307	;_STRD
   245  0CEC                     _STRSYNC	set	3308	;_STRSYNC
   246  0C62                     _WREN	set	3170	;_WREN
   247  001F                     _ADCON0	set	31
   248  0019                     _CMCON0	set	25
   249  000B                     _INTCON	set	11
   250  001B                     _MSCKCON	set	27
   251  0005                     _PORTA	set	5
   252  0007                     _PORTC	set	7
   253  0010                     _T1CON	set	16
   254  000F                     _TMR1H	set	15
   255  000E                     _TMR1L	set	14
   256  005F                     _GIE	set	95
   257  005E                     _PEIE	set	94
   258  002E                     _RA6	set	46
   259  002F                     _RA7	set	47
   260  0038                     _RC0	set	56
   261  0039                     _RC1	set	57
   262  0060                     _TMR1IF	set	96
   263  0080                     _TMR1ON	set	128
   264  009F                     _ADCON1	set	159
   265  0091                     _ANSEL	set	145
   266  0081                     _OPTION	set	129
   267  008F                     _OSCCON	set	143
   268  0085                     _TRISA	set	133
   269  0087                     _TRISC	set	135
   270  0095                     _WPUA	set	149
   271  0088                     _WPUC	set	136
   272  0460                     _TMR1IE	set	1120
   273  0439                     _TRISC1	set	1081
   274                           
   275                           	psect	cinit
   276  0513                     start_initialization:	
   277  0513  303A               	movlw	low __pbssBANK0
   278                           
   279                           ; Clear objects allocated to COMMON
   280  0514  01FB               	clrf	__pbssCOMMON& (0+127)
   281                           
   282                           ; Clear objects allocated to BANK0
   283  0515  1383               	bcf	3,7	;select IRP bank0
   284  0516  0084               	movwf	4
   285  0517  304D               	movlw	low (__pbssBANK0+19)
   286  0518  257D               	fcall	clear_ram
   287                           
   288                           ; Initialize objects allocated to BANK0
   289  0519  303A               	movlw	low (__pdataBANK0+26)
   290  051A  00FD               	movwf	125
   291  051B  3004               	movlw	high __pidataBANK0
   292  051C  00FE               	movwf	126
   293  051D  30BA               	movlw	low __pidataBANK0
   294  051E  00FF               	movwf	127
   295  051F  3020               	movlw	low __pdataBANK0
   296  0520  0084               	movwf	4
   297  0521  2528               	fcall	init_ram
   298  0522                     end_of_initialization:	
   299                           ;End of C runtime variable initialization code
   300                           
   301  0522  0183               	clrf	3
   302  0523  2CD4               	ljmp	_main	;jump to C main() function
   303                           
   304                           	psect	bssCOMMON
   305  007B                     __pbssCOMMON:	
   306  007B                     __RegL:	
   307  007B                     	ds	1
   308                           
   309                           	psect	bssBANK0
   310  003A                     __pbssBANK0:	
   311  003A                     _rxtimeout:	
   312  003A                     	ds	2
   313  003C                     __RegH:	
   314  003C                     	ds	1
   315  003D                     _ledsta:	
   316  003D                     	ds	1
   317  003E                     _lt8988_work_sta:	
   318  003E                     	ds	1
   319  003F                     _rxflag:	
   320  003F                     	ds	1
   321  0040                     _RXADVDATA:	
   322  0040                     	ds	13
   323                           
   324                           	psect	dataBANK0
   325  0020                     __pdataBANK0:	
   326  0020                     _PDUDATA:	
   327  0020                     	ds	26
   328                           
   329                           	psect	clrtext
   330  057D                     clear_ram:	
   331                           ;	Called with FSR containing the base address, and
   332                           ;	W with the last address+1
   333                           
   334  057D  0064               	clrwdt	;clear the watchdog before getting into this loop
   335  057E                     clrloop:	
   336  057E  0180               	clrf	0	;clear RAM location pointed to by FSR
   337  057F  0A84               	incf	4,f	;increment pointer
   338  0580  0604               	xorwf	4,w	;XOR with final address
   339  0581  1903               	btfsc	3,2	;have we reached the end yet?
   340  0582  3400               	retlw	0	;all done for this memory range, return
   341  0583  0604               	xorwf	4,w	;XOR again to restore value
   342  0584  2D7E               	goto	clrloop	;do the next byte
   343                           
   344                           	psect	inittext
   345  0524                     init_fetch:	
   346                           ;	Called with low address in FSR and high address in W
   347                           
   348  0524  087E               	movf	126,w
   349  0525  008A               	movwf	10
   350  0526  087F               	movf	127,w
   351  0527  0082               	movwf	2
   352  0528                     init_ram:	
   353                           ;Called with:
   354                           ;	high address of idata address in btemp 
   355                           ;	low address of idata address in btemp+1 
   356                           ;	low address of data in FSR
   357                           ;	high address + 1 of data in btemp-1
   358                           
   359  0528  2524               	fcall	init_fetch
   360  0529  0080               	movwf	0
   361  052A  0A84               	incf	4,f
   362  052B  0804               	movf	4,w
   363  052C  067D               	xorwf	125,w
   364  052D  1903               	btfsc	3,2
   365  052E  3400               	retlw	0
   366  052F  0AFF               	incf	127,f
   367  0530  1903               	btfsc	3,2
   368  0531  0AFE               	incf	126,f
   369  0532  2D28               	goto	init_ram
   370                           
   371                           	psect	cstackCOMMON
   372  0070                     __pcstackCOMMON:	
   373  0070                     ?_LT8988_INIT:	
   374  0070                     ?_write_sync:	
   375                           ; 0 bytes @ 0x0
   376                           
   377  0070                     ?_lt8988_ble_tx:	
   378                           ; 0 bytes @ 0x0
   379                           
   380  0070                     ?_lt8988_ble_rx:	
   381                           ; 0 bytes @ 0x0
   382                           
   383  0070                     ?_LT8988_ble_tx_enable:	
   384                           ; 0 bytes @ 0x0
   385                           
   386  0070                     ?_DelayMs:	
   387                           ; 0 bytes @ 0x0
   388                           
   389  0070                     ?_LT8988_ble_rx_start:	
   390                           ; 0 bytes @ 0x0
   391                           
   392  0070                     ?_LT8988_ReadReg:	
   393                           ; 0 bytes @ 0x0
   394                           
   395  0070                     ?_LT8988_ble_rx_enable:	
   396                           ; 0 bytes @ 0x0
   397                           
   398  0070                     ?_ISR:	
   399                           ; 0 bytes @ 0x0
   400                           
   401  0070                     ??_ISR:	
   402                           ; 0 bytes @ 0x0
   403                           
   404  0070                     ?_Init:	
   405                           ; 0 bytes @ 0x0
   406                           
   407  0070                     ?_main:	
   408                           ; 0 bytes @ 0x0
   409                           
   410  0070                     ?_ble_chanel_scan:	
   411                           ; 0 bytes @ 0x0
   412                           
   413  0070                     ?_ble_read_fifo:	
   414                           ; 0 bytes @ 0x0
   415                           
   416  0070                     ?_LT8988_start:	
   417                           ; 0 bytes @ 0x0
   418                           
   419  0070                     ?_LT8988_stop:	
   420                           ; 0 bytes @ 0x0
   421                           
   422  0070                     ?_Send_Byte:	
   423                           ; 0 bytes @ 0x0
   424                           
   425  0070                     ?_ack:	
   426                           ; 0 bytes @ 0x0
   427                           
   428  0070                     ?_nack:	
   429                           ; 0 bytes @ 0x0
   430                           
   431  0070                     ?_LT8988_ReadBUF:	
   432                           ; 0 bytes @ 0x0
   433                           
   434  0070                     ?_Read_Byte:	
   435                           ; 1 bytes @ 0x0
   436                           
   437  0070                     ?_roll_data:	
   438                           ; 1 bytes @ 0x0
   439                           
   440                           
   441                           ; 1 bytes @ 0x0
   442  0070                     	ds	2
   443  0072                     ??_DelayMs:	
   444  0072                     ??_Init:	
   445                           ; 0 bytes @ 0x2
   446                           
   447  0072                     ??_LT8988_start:	
   448                           ; 0 bytes @ 0x2
   449                           
   450  0072                     ??_LT8988_stop:	
   451                           ; 0 bytes @ 0x2
   452                           
   453  0072                     ??_Send_Byte:	
   454                           ; 0 bytes @ 0x2
   455                           
   456  0072                     ??_Read_Byte:	
   457                           ; 0 bytes @ 0x2
   458                           
   459  0072                     ??_ack:	
   460                           ; 0 bytes @ 0x2
   461                           
   462  0072                     ??_nack:	
   463                           ; 0 bytes @ 0x2
   464                           
   465  0072                     ??_roll_data:	
   466                           ; 0 bytes @ 0x2
   467                           
   468  0072                     ?_LT8988_pdudata_white:	
   469                           ; 0 bytes @ 0x2
   470                           
   471  0072                     ?_LT8988_ble_to_localdata:	
   472                           ; 0 bytes @ 0x2
   473                           
   474  0072                     ?_check_sum:	
   475                           ; 0 bytes @ 0x2
   476                           
   477  0072                     Send_Byte@DATA:	
   478                           ; 1 bytes @ 0x2
   479                           
   480  0072                     Read_Byte@byte:	
   481                           ; 1 bytes @ 0x2
   482                           
   483  0072                     check_sum@len:	
   484                           ; 1 bytes @ 0x2
   485                           
   486  0072                     LT8988_pdudata_white@PDUDATA:	
   487                           ; 1 bytes @ 0x2
   488                           
   489  0072                     LT8988_ble_to_localdata@ADVDATA:	
   490                           ; 1 bytes @ 0x2
   491                           
   492  0072                     DelayMs@dly:	
   493                           ; 1 bytes @ 0x2
   494                           
   495                           
   496                           ; 2 bytes @ 0x2
   497  0072                     	ds	1
   498  0073                     ??_LT8988_ReadReg:	
   499  0073                     ??_check_sum:	
   500                           ; 0 bytes @ 0x3
   501                           
   502  0073                     ?_LT8988_WriteReg:	
   503                           ; 0 bytes @ 0x3
   504                           
   505  0073                     ??_LT8988_ReadBUF:	
   506                           ; 0 bytes @ 0x3
   507                           
   508  0073                     LT8988_WriteReg@H:	
   509                           ; 0 bytes @ 0x3
   510                           
   511  0073                     LT8988_ReadReg@reg:	
   512                           ; 1 bytes @ 0x3
   513                           
   514  0073                     roll_data@roll_in:	
   515                           ; 1 bytes @ 0x3
   516                           
   517  0073                     LT8988_pdudata_white@len:	
   518                           ; 1 bytes @ 0x3
   519                           
   520  0073                     LT8988_ble_to_localdata@len:	
   521                           ; 1 bytes @ 0x3
   522                           
   523                           
   524                           ; 1 bytes @ 0x3
   525  0073                     	ds	1
   526  0074                     ??_LT8988_pdudata_white:	
   527  0074                     LT8988_WriteReg@L:	
   528                           ; 0 bytes @ 0x4
   529                           
   530  0074                     DelayMs@Tms:	
   531                           ; 1 bytes @ 0x4
   532                           
   533  0074                     roll_data@roll_out:	
   534                           ; 1 bytes @ 0x4
   535                           
   536  0074                     LT8988_ble_to_localdata@adv_offset:	
   537                           ; 1 bytes @ 0x4
   538                           
   539                           
   540                           ; 1 bytes @ 0x4
   541  0074                     	ds	1
   542  0075                     ??_LT8988_WriteReg:	
   543  0075                     ??_LT8988_ble_to_localdata:	
   544                           ; 0 bytes @ 0x5
   545                           
   546  0075                     LT8988_WriteReg@reg:	
   547                           ; 0 bytes @ 0x5
   548                           
   549  0075                     LT8988_ReadBUF@pBuf:	
   550                           ; 1 bytes @ 0x5
   551                           
   552  0075                     check_sum@sum:	
   553                           ; 1 bytes @ 0x5
   554                           
   555  0075                     roll_data@i:	
   556                           ; 1 bytes @ 0x5
   557                           
   558                           
   559                           ; 1 bytes @ 0x5
   560  0075                     	ds	1
   561  0076                     ??_LT8988_INIT:	
   562  0076                     ??_write_sync:	
   563                           ; 0 bytes @ 0x6
   564                           
   565  0076                     ?_LT8988_ble_write_reg:	
   566                           ; 0 bytes @ 0x6
   567                           
   568  0076                     ?_get_crc:	
   569                           ; 0 bytes @ 0x6
   570                           
   571  0076                     LT8988_ble_write_reg@first:	
   572                           ; 0 bytes @ 0x6
   573                           
   574  0076                     LT8988_ReadBUF@i:	
   575                           ; 1 bytes @ 0x6
   576                           
   577  0076                     check_sum@buf:	
   578                           ; 1 bytes @ 0x6
   579                           
   580  0076                     get_crc@lenth:	
   581                           ; 1 bytes @ 0x6
   582                           
   583                           
   584                           ; 1 bytes @ 0x6
   585  0076                     	ds	1
   586  0077                     LT8988_ble_write_reg@second:	
   587  0077                     LT8988_ReadBUF@len:	
   588                           ; 1 bytes @ 0x7
   589                           
   590  0077                     check_sum@i:	
   591                           ; 1 bytes @ 0x7
   592                           
   593                           
   594                           ; 1 bytes @ 0x7
   595  0077                     	ds	1
   596  0078                     ??_LT8988_ble_write_reg:	
   597  0078                     ??_ble_read_fifo:	
   598                           ; 0 bytes @ 0x8
   599                           
   600  0078                     LT8988_ble_write_reg@reg:	
   601                           ; 0 bytes @ 0x8
   602                           
   603  0078                     ble_read_fifo@buf:	
   604                           ; 1 bytes @ 0x8
   605                           
   606  0078                     LT8988_pdudata_white@chanel:	
   607                           ; 1 bytes @ 0x8
   608                           
   609                           
   610                           ; 1 bytes @ 0x8
   611  0078                     	ds	1
   612  0079                     ??_LT8988_ble_tx_enable:	
   613  0079                     ??_LT8988_ble_rx_start:	
   614                           ; 0 bytes @ 0x9
   615                           
   616  0079                     ??_LT8988_ble_rx_enable:	
   617                           ; 0 bytes @ 0x9
   618                           
   619  0079                     ?_LT8988_write_ble_fifo:	
   620                           ; 0 bytes @ 0x9
   621                           
   622  0079                     LT8988_pdudata_white@i:	
   623                           ; 0 bytes @ 0x9
   624                           
   625  0079                     LT8988_write_ble_fifo@len:	
   626                           ; 1 bytes @ 0x9
   627                           
   628  0079                     LT8988_ble_rx_start@chanel:	
   629                           ; 1 bytes @ 0x9
   630                           
   631                           
   632                           ; 1 bytes @ 0x9
   633  0079                     	ds	1
   634  007A                     ??_LT8988_ble_tx_start:	
   635  007A                     ??_LT8988_read_ble_fifo:	
   636                           ; 0 bytes @ 0xA
   637                           
   638  007A                     LT8988_ble_tx_start@chanel:	
   639                           ; 0 bytes @ 0xA
   640                           
   641  007A                     LT8988_read_ble_fifo@chanel:	
   642                           ; 1 bytes @ 0xA
   643                           
   644                           
   645                           ; 1 bytes @ 0xA
   646  007A                     	ds	1
   647  007B                     ??_lt8988_ble_tx:	
   648  007B                     ??_lt8988_ble_rx:	
   649                           ; 0 bytes @ 0xB
   650                           
   651  007B                     ??_main:	
   652                           ; 0 bytes @ 0xB
   653                           
   654  007B                     ??_ble_chanel_scan:	
   655                           ; 0 bytes @ 0xB
   656                           
   657                           
   658                           	psect	cstackBANK0
   659  004D                     __pcstackBANK0:	
   660                           ; 0 bytes @ 0xB
   661                           
   662  004D                     ??_get_crc:	
   663  004D                     ??_LT8988_write_ble_fifo:	
   664                           ; 0 bytes @ 0x0
   665                           
   666  004D                     LT8988_ble_to_localdata@chanel:	
   667                           ; 0 bytes @ 0x0
   668                           
   669                           
   670                           ; 1 bytes @ 0x0
   671  004D                     	ds	1
   672  004E                     LT8988_ble_to_localdata@i:	
   673                           
   674                           ; 1 bytes @ 0x1
   675  004E                     	ds	1
   676  004F                     ?_LT8988_read_ble_fifo:	
   677  004F                     LT8988_write_ble_fifo@i:	
   678                           ; 0 bytes @ 0x2
   679                           
   680  004F                     LT8988_read_ble_fifo@RXADVDATA:	
   681                           ; 1 bytes @ 0x2
   682                           
   683                           
   684                           ; 1 bytes @ 0x2
   685  004F                     	ds	1
   686  0050                     LT8988_write_ble_fifo@txdata:	
   687  0050                     LT8988_read_ble_fifo@len:	
   688                           ; 1 bytes @ 0x3
   689                           
   690                           
   691                           ; 1 bytes @ 0x3
   692  0050                     	ds	1
   693  0051                     ble_chanel_scan@chanel:	
   694                           
   695                           ; 1 bytes @ 0x4
   696  0051                     	ds	1
   697  0052                     ble_chanel_scan@i:	
   698  0052                     get_crc@c0:	
   699                           ; 1 bytes @ 0x5
   700                           
   701                           
   702                           ; 1 bytes @ 0x5
   703  0052                     	ds	1
   704  0053                     lt8988_ble_rx@i:	
   705  0053                     get_crc@c1:	
   706                           ; 1 bytes @ 0x6
   707                           
   708                           
   709                           ; 1 bytes @ 0x6
   710  0053                     	ds	1
   711  0054                     get_crc@c2:	
   712                           
   713                           ; 1 bytes @ 0x7
   714  0054                     	ds	1
   715  0055                     get_crc@i:	
   716                           
   717                           ; 1 bytes @ 0x8
   718  0055                     	ds	1
   719  0056                     get_crc@user_data_buf:	
   720                           
   721                           ; 1 bytes @ 0x9
   722  0056                     	ds	1
   723  0057                     get_crc@e:	
   724                           
   725                           ; 1 bytes @ 0xA
   726  0057                     	ds	1
   727  0058                     ?_LT8988_ble_tx_start:	
   728  0058                     LT8988_ble_tx_start@PDUDATA:	
   729                           ; 0 bytes @ 0xB
   730                           
   731                           
   732                           ; 1 bytes @ 0xB
   733  0058                     	ds	1
   734  0059                     LT8988_ble_tx_start@len:	
   735                           
   736                           ; 1 bytes @ 0xC
   737  0059                     	ds	1
   738                           
   739                           	psect	maintext
   740  04D4                     __pmaintext:	
   741 ;;Data sizes: Strings 0, constant 117, data 26, bss 20, persistent 0 stack 0
   742 ;;Auto spaces:   Size  Autos    Used
   743 ;; COMMON          14     11      12
   744 ;; BANK0           80     13      58
   745 ;; BANK1           32      0       0
   746 ;;
   747 ;; Pointer list with targets:
   748 ;; LT8988_read_ble_fifo@RXADVDATA	PTR unsigned char  size(1) Largest target is 13
   749 ;;		 -> RXADVDATA(BANK0[13]), 
   750 ;;
   751 ;; LT8988_ble_tx_start@PDUDATA	PTR unsigned char  size(1) Largest target is 26
   752 ;;		 -> PDUDATA(BANK0[26]), 
   753 ;;
   754 ;; LT8988_write_ble_fifo@txdata	PTR unsigned char  size(1) Largest target is 26
   755 ;;		 -> PDUDATA(BANK0[26]), 
   756 ;;
   757 ;; LT8988_ble_to_localdata@ADVDATA	PTR unsigned char  size(1) Largest target is 13
   758 ;;		 -> RXADVDATA(BANK0[13]), 
   759 ;;
   760 ;; LT8988_pdudata_white@PDUDATA	PTR unsigned char  size(1) Largest target is 26
   761 ;;		 -> PDUDATA(BANK0[26]), 
   762 ;;
   763 ;; get_crc@user_data_buf	PTR unsigned char  size(1) Largest target is 26
   764 ;;		 -> PDUDATA(BANK0[26]), 
   765 ;;
   766 ;; check_sum@buf	PTR unsigned char  size(1) Largest target is 13
   767 ;;		 -> RXADVDATA(BANK0[13]), 
   768 ;;
   769 ;; LT8988_ReadBUF@pBuf	PTR unsigned char  size(1) Largest target is 13
   770 ;;		 -> RXADVDATA(BANK0[13]), 
   771 ;;
   772 ;; ble_read_fifo@buf	PTR unsigned char  size(1) Largest target is 13
   773 ;;		 -> RXADVDATA(BANK0[13]), 
   774 ;;
   775 ;;
   776 ;; Critical Paths under _main in COMMON
   777 ;;
   778 ;;   _lt8988_ble_tx->_LT8988_ble_tx_start
   779 ;;   _ble_chanel_scan->_LT8988_read_ble_fifo
   780 ;;   _LT8988_ble_tx_start->_LT8988_pdudata_white
   781 ;;   _LT8988_ble_tx_start->_LT8988_write_ble_fifo
   782 ;;   _LT8988_write_ble_fifo->_LT8988_ble_write_reg
   783 ;;   _LT8988_ble_rx_enable->_LT8988_ble_write_reg
   784 ;;   _LT8988_read_ble_fifo->_LT8988_ble_to_localdata
   785 ;;   _LT8988_ble_rx_start->_LT8988_ble_write_reg
   786 ;;   _LT8988_ble_tx_enable->_LT8988_ble_write_reg
   787 ;;   _ble_read_fifo->_LT8988_ReadBUF
   788 ;;   _LT8988_ble_write_reg->_LT8988_WriteReg
   789 ;;   _write_sync->_LT8988_WriteReg
   790 ;;   _LT8988_INIT->_LT8988_WriteReg
   791 ;;   _LT8988_ReadBUF->_Send_Byte
   792 ;;   _LT8988_ReadBUF->_Read_Byte
   793 ;;   _LT8988_WriteReg->_Send_Byte
   794 ;;   _LT8988_ReadReg->_Send_Byte
   795 ;;   _LT8988_ReadReg->_Read_Byte
   796 ;;   _get_crc->_roll_data
   797 ;;
   798 ;; Critical Paths under _ISR in COMMON
   799 ;;
   800 ;;   None.
   801 ;;
   802 ;; Critical Paths under _main in BANK0
   803 ;;
   804 ;;   _lt8988_ble_rx->_ble_chanel_scan
   805 ;;   _lt8988_ble_tx->_LT8988_ble_tx_start
   806 ;;   _ble_chanel_scan->_LT8988_read_ble_fifo
   807 ;;   _LT8988_ble_tx_start->_get_crc
   808 ;;   _LT8988_read_ble_fifo->_LT8988_ble_to_localdata
   809 ;;
   810 ;; Critical Paths under _ISR in BANK0
   811 ;;
   812 ;;   None.
   813 ;;
   814 ;; Critical Paths under _main in BANK1
   815 ;;
   816 ;;   None.
   817 ;;
   818 ;; Critical Paths under _ISR in BANK1
   819 ;;
   820 ;;   None.
   821 ;;
   822 ;;Main: autosize = 0, tempsize = 0, incstack = 0, save=0
   823 ;;
   824 ;;
   825 ;;Call Graph Tables:
   826 ;;
   827 ;; ---------------------------------------------------------------------------------
   828 ;; (Depth) Function   	        Calls       Base Space   Used Autos Params    Refs
   829 ;; ---------------------------------------------------------------------------------
   830 ;; (0) _main                                                 0     0      0    9698
   831 ;;                               _Init
   832 ;;                        _LT8988_INIT
   833 ;;                         _write_sync
   834 ;;                      _lt8988_ble_tx
   835 ;;                      _lt8988_ble_rx
   836 ;; ---------------------------------------------------------------------------------
   837 ;; (1) _lt8988_ble_rx                                        1     1      0    4740
   838 ;;                                              6 BANK0      1     1      0
   839 ;;               _LT8988_ble_rx_enable
   840 ;;                    _ble_chanel_scan
   841 ;; ---------------------------------------------------------------------------------
   842 ;; (1) _lt8988_ble_tx                                        0     0      0    3892
   843 ;;               _LT8988_ble_tx_enable
   844 ;;                _LT8988_ble_tx_start
   845 ;;                            _DelayMs
   846 ;; ---------------------------------------------------------------------------------
   847 ;; (2) _ble_chanel_scan                                      2     2      0    4238
   848 ;;                                              4 BANK0      2     2      0
   849 ;;                _LT8988_ble_rx_start
   850 ;;                     _LT8988_ReadReg
   851 ;;               _LT8988_read_ble_fifo
   852 ;;                          _check_sum
   853 ;;                            _DelayMs
   854 ;; ---------------------------------------------------------------------------------
   855 ;; (2) _LT8988_ble_tx_start                                  3     1      2    3411
   856 ;;                                             10 COMMON     1     1      0
   857 ;;                                             11 BANK0      2     0      2
   858 ;;                            _get_crc
   859 ;;               _LT8988_pdudata_white
   860 ;;               _LT8988_ble_write_reg
   861 ;;              _LT8988_write_ble_fifo
   862 ;; ---------------------------------------------------------------------------------
   863 ;; (3) _LT8988_write_ble_fifo                                5     4      1     688
   864 ;;                                              9 COMMON     1     0      1
   865 ;;                                              0 BANK0      4     4      0
   866 ;;               _LT8988_ble_write_reg
   867 ;; ---------------------------------------------------------------------------------
   868 ;; (2) _LT8988_ble_rx_enable                                 0     0      0     434
   869 ;;               _LT8988_ble_write_reg
   870 ;; ---------------------------------------------------------------------------------
   871 ;; (3) _LT8988_read_ble_fifo                                 3     1      2    3029
   872 ;;                                             10 COMMON     1     1      0
   873 ;;                                              2 BANK0      2     0      2
   874 ;;               _LT8988_ble_write_reg
   875 ;;                      _ble_read_fifo
   876 ;;            _LT8988_ble_to_localdata
   877 ;; ---------------------------------------------------------------------------------
   878 ;; (3) _LT8988_ble_rx_start                                  1     1      0     527
   879 ;;                                              9 COMMON     1     1      0
   880 ;;               _LT8988_ble_write_reg
   881 ;; ---------------------------------------------------------------------------------
   882 ;; (2) _LT8988_ble_tx_enable                                 0     0      0     434
   883 ;;               _LT8988_ble_write_reg
   884 ;; ---------------------------------------------------------------------------------
   885 ;; (4) _ble_read_fifo                                        1     1      0     631
   886 ;;                                              8 COMMON     1     1      0
   887 ;;                     _LT8988_ReadBUF
   888 ;; ---------------------------------------------------------------------------------
   889 ;; (4) _LT8988_ble_write_reg                                 3     1      2     434
   890 ;;                                              6 COMMON     3     1      2
   891 ;;                    _LT8988_WriteReg
   892 ;; ---------------------------------------------------------------------------------
   893 ;; (1) _write_sync                                           0     0      0     341
   894 ;;                    _LT8988_WriteReg
   895 ;; ---------------------------------------------------------------------------------
   896 ;; (1) _LT8988_INIT                                          0     0      0     725
   897 ;;                    _LT8988_WriteReg
   898 ;;                            _DelayMs
   899 ;;                     _LT8988_ReadReg
   900 ;; ---------------------------------------------------------------------------------
   901 ;; (5) _LT8988_ReadBUF                                       5     5      0     600
   902 ;;                                              3 COMMON     5     5      0
   903 ;;                       _LT8988_start
   904 ;;                          _Send_Byte
   905 ;;                                _ack
   906 ;;                          _Read_Byte
   907 ;;                               _nack
   908 ;;                        _LT8988_stop
   909 ;; ---------------------------------------------------------------------------------
   910 ;; (5) _LT8988_WriteReg                                      3     1      2     341
   911 ;;                                              3 COMMON     3     1      2
   912 ;;                       _LT8988_start
   913 ;;                          _Send_Byte
   914 ;;                                _ack
   915 ;;                        _LT8988_stop
   916 ;; ---------------------------------------------------------------------------------
   917 ;; (3) _LT8988_ReadReg                                       1     1      0     337
   918 ;;                                              3 COMMON     1     1      0
   919 ;;                       _LT8988_start
   920 ;;                          _Send_Byte
   921 ;;                                _ack
   922 ;;                          _Read_Byte
   923 ;;                               _nack
   924 ;;                        _LT8988_stop
   925 ;; ---------------------------------------------------------------------------------
   926 ;; (3) _get_crc                                             12    11      1    1124
   927 ;;                                              6 COMMON     1     0      1
   928 ;;                                              0 BANK0     11    11      0
   929 ;;                          _roll_data
   930 ;; ---------------------------------------------------------------------------------
   931 ;; (6) _nack                                                 0     0      0       0
   932 ;; ---------------------------------------------------------------------------------
   933 ;; (6) _ack                                                  0     0      0       0
   934 ;; ---------------------------------------------------------------------------------
   935 ;; (5) _LT8988_ble_to_localdata                             10     7      3    1561
   936 ;;                                              2 COMMON     8     5      3
   937 ;;                                              0 BANK0      2     2      0
   938 ;; ---------------------------------------------------------------------------------
   939 ;; (4) _LT8988_pdudata_white                                 8     6      2     762
   940 ;;                                              2 COMMON     8     6      2
   941 ;; ---------------------------------------------------------------------------------
   942 ;; (4) _roll_data                                            4     4      0     198
   943 ;;                                              2 COMMON     4     4      0
   944 ;; ---------------------------------------------------------------------------------
   945 ;; (6) _Read_Byte                                            1     1      0      58
   946 ;;                                              2 COMMON     1     1      0
   947 ;; ---------------------------------------------------------------------------------
   948 ;; (6) _Send_Byte                                            1     1      0     248
   949 ;;                                              2 COMMON     1     1      0
   950 ;; ---------------------------------------------------------------------------------
   951 ;; (6) _LT8988_stop                                          0     0      0       0
   952 ;; ---------------------------------------------------------------------------------
   953 ;; (6) _LT8988_start                                         0     0      0       0
   954 ;; ---------------------------------------------------------------------------------
   955 ;; (3) _check_sum                                            6     5      1     165
   956 ;;                                              2 COMMON     6     5      1
   957 ;; ---------------------------------------------------------------------------------
   958 ;; (3) _DelayMs                                              3     3      0      47
   959 ;;                                              2 COMMON     3     3      0
   960 ;; ---------------------------------------------------------------------------------
   961 ;; (1) _Init                                                 0     0      0       0
   962 ;; ---------------------------------------------------------------------------------
   963 ;; Estimated maximum stack depth 6
   964 ;; ---------------------------------------------------------------------------------
   965 ;; (Depth) Function   	        Calls       Base Space   Used Autos Params    Refs
   966 ;; ---------------------------------------------------------------------------------
   967 ;; (7) _ISR                                                  2     2      0       0
   968 ;;                                              0 COMMON     2     2      0
   969 ;; ---------------------------------------------------------------------------------
   970 ;; Estimated maximum stack depth 7
   971 ;; ---------------------------------------------------------------------------------
   972 ;; Call Graph Graphs:
   973 ;; _main (ROOT)
   974 ;;   _Init
   975 ;;   _LT8988_INIT
   976 ;;     _LT8988_WriteReg
   977 ;;       _LT8988_start
   978 ;;       _Send_Byte
   979 ;;       _ack
   980 ;;       _LT8988_stop
   981 ;;     _DelayMs
   982 ;;     _LT8988_ReadReg
   983 ;;       _LT8988_start
   984 ;;       _Send_Byte
   985 ;;       _ack
   986 ;;       _Read_Byte
   987 ;;       _nack
   988 ;;       _LT8988_stop
   989 ;;   _write_sync
   990 ;;     _LT8988_WriteReg
   991 ;;       _LT8988_start
   992 ;;       _Send_Byte
   993 ;;       _ack
   994 ;;       _LT8988_stop
   995 ;;   _lt8988_ble_tx
   996 ;;     _LT8988_ble_tx_enable
   997 ;;       _LT8988_ble_write_reg
   998 ;;         _LT8988_WriteReg
   999 ;;           _LT8988_start
  1000 ;;           _Send_Byte
  1001 ;;           _ack
  1002 ;;           _LT8988_stop
  1003 ;;     _LT8988_ble_tx_start
  1004 ;;       _get_crc
  1005 ;;         _roll_data
  1006 ;;       _LT8988_pdudata_white
  1007 ;;       _LT8988_ble_write_reg
  1008 ;;         _LT8988_WriteReg
  1009 ;;           _LT8988_start
  1010 ;;           _Send_Byte
  1011 ;;           _ack
  1012 ;;           _LT8988_stop
  1013 ;;       _LT8988_write_ble_fifo
  1014 ;;         _LT8988_ble_write_reg
  1015 ;;           _LT8988_WriteReg
  1016 ;;             _LT8988_start
  1017 ;;             _Send_Byte
  1018 ;;             _ack
  1019 ;;             _LT8988_stop
  1020 ;;     _DelayMs
  1021 ;;   _lt8988_ble_rx
  1022 ;;     _LT8988_ble_rx_enable
  1023 ;;       _LT8988_ble_write_reg
  1024 ;;         _LT8988_WriteReg
  1025 ;;           _LT8988_start
  1026 ;;           _Send_Byte
  1027 ;;           _ack
  1028 ;;           _LT8988_stop
  1029 ;;     _ble_chanel_scan
  1030 ;;       _LT8988_ble_rx_start
  1031 ;;         _LT8988_ble_write_reg
  1032 ;;           _LT8988_WriteReg
  1033 ;;             _LT8988_start
  1034 ;;             _Send_Byte
  1035 ;;             _ack
  1036 ;;             _LT8988_stop
  1037 ;;       _LT8988_ReadReg
  1038 ;;         _LT8988_start
  1039 ;;         _Send_Byte
  1040 ;;         _ack
  1041 ;;         _Read_Byte
  1042 ;;         _nack
  1043 ;;         _LT8988_stop
  1044 ;;       _LT8988_read_ble_fifo
  1045 ;;         _LT8988_ble_write_reg
  1046 ;;           _LT8988_WriteReg
  1047 ;;             _LT8988_start
  1048 ;;             _Send_Byte
  1049 ;;             _ack
  1050 ;;             _LT8988_stop
  1051 ;;         _ble_read_fifo
  1052 ;;           _LT8988_ReadBUF
  1053 ;;             _LT8988_start
  1054 ;;             _Send_Byte
  1055 ;;             _ack
  1056 ;;             _Read_Byte
  1057 ;;             _nack
  1058 ;;             _LT8988_stop
  1059 ;;         _LT8988_ble_to_localdata
  1060 ;;       _check_sum
  1061 ;;       _DelayMs
  1062 ;;
  1063 ;; _ISR (ROOT)
  1064 ;;
  1065 ;; Address spaces:
  1066 ;;Name               Size   Autos  Total    Cost      Usage
  1067 ;;SFR2                 0      0       0       5        0.0%
  1068 ;;BITSFR2              0      0       0       5        0.0%
  1069 ;;SFR1                 0      0       0       2        0.0%
  1070 ;;BITSFR1              0      0       0       2        0.0%
  1071 ;;BANK1               20      0       0       6        0.0%
  1072 ;;BITBANK1            20      0       0       5        0.0%
  1073 ;;CODE                 0      0       0       0        0.0%
  1074 ;;DATA                 0      0      4C       8        0.0%
  1075 ;;ABS                  0      0      46       7        0.0%
  1076 ;;NULL                 0      0       0       0        0.0%
  1077 ;;STACK                0      0       6       2        0.0%
  1078 ;;BANK0               50      D      3A       4       72.5%
  1079 ;;BITBANK0            50      0       0       3        0.0%
  1080 ;;SFR0                 0      0       0       1        0.0%
  1081 ;;BITSFR0              0      0       0       1        0.0%
  1082 ;;COMMON               E      B       C       1       85.7%
  1083 ;;BITCOMMON            E      0       0       0        0.0%
  1084 ;;EEDATA             100      0       0       0        0.0%
  1085                           
  1086                           
  1087 ;; *************** function _main *****************
  1088 ;; Defined at:
  1089 ;;		line 131 in file "main.c"
  1090 ;; Parameters:    Size  Location     Type
  1091 ;;		None
  1092 ;; Auto vars:     Size  Location     Type
  1093 ;;		None
  1094 ;; Return value:  Size  Location     Type
  1095 ;;		None               void
  1096 ;; Registers used:
  1097 ;;		wreg, fsr0l, fsr0h, status,2, status,0, pclath, cstack
  1098 ;; Tracked objects:
  1099 ;;		On entry : 17F/0
  1100 ;;		On exit  : 60/0
  1101 ;;		Unchanged: 0/0
  1102 ;; Data sizes:     COMMON   BANK0   BANK1
  1103 ;;      Params:         0       0       0
  1104 ;;      Locals:         0       0       0
  1105 ;;      Temps:          0       0       0
  1106 ;;      Totals:         0       0       0
  1107 ;;Total ram usage:        0 bytes
  1108 ;; Hardware stack levels required when called:    7
  1109 ;; This function calls:
  1110 ;;		_Init
  1111 ;;		_LT8988_INIT
  1112 ;;		_write_sync
  1113 ;;		_lt8988_ble_tx
  1114 ;;		_lt8988_ble_rx
  1115 ;; This function is called by:
  1116 ;;		Startup code after reset
  1117 ;; This function uses a non-reentrant model
  1118 ;;
  1119  04D4                     _main:	
  1120                           
  1121                           ;main.c: 132: Init();
  1122                           
  1123                           ; Regs used in _main: [wreg-fsr0h+status,2+status,0+pclath+cstack]
  1124  04D4  23DA               	fcall	_Init
  1125                           
  1126                           ;main.c: 134: LT8988_INIT();
  1127  04D5  2203               	fcall	_LT8988_INIT
  1128                           
  1129                           ;main.c: 135: write_sync();
  1130  04D6  255F               	fcall	_write_sync
  1131                           
  1132                           ;main.c: 157: lt8988_work_sta = SCAN;
  1133  04D7  01BE               	clrf	_lt8988_work_sta
  1134  04D8  2CE3               	goto	l4899
  1135  04D9                     l4901:	
  1136                           
  1137                           ;main.c: 163: {
  1138                           ;main.c: 165: rxflag = 0;
  1139  04D9  01BF               	clrf	_rxflag
  1140                           
  1141                           ;main.c: 167: lt8988_ble_tx();
  1142  04DA  249E               	fcall	_lt8988_ble_tx
  1143                           
  1144                           ;main.c: 168: lt8988_ble_rx();
  1145  04DB  2551               	fcall	_lt8988_ble_rx
  1146                           
  1147                           ;main.c: 169: if(rxflag == 1)
  1148  04DC  0B3F               	decfsz	_rxflag,w
  1149  04DD  2CE3               	goto	l4899
  1150                           
  1151                           ;main.c: 170: {
  1152                           ;main.c: 171: rxflag = 0;
  1153  04DE  01BF               	clrf	_rxflag
  1154                           
  1155                           ;main.c: 172: rxtimeout = 0;
  1156  04DF  01BA               	clrf	_rxtimeout
  1157  04E0  01BB               	clrf	_rxtimeout+1
  1158                           
  1159                           ;main.c: 173: lt8988_work_sta = RXBLE;
  1160  04E1  01BE               	clrf	_lt8988_work_sta
  1161  04E2  0ABE               	incf	_lt8988_work_sta,f
  1162  04E3                     l4899:	
  1163                           
  1164                           ;main.c: 160: {
  1165                           ;main.c: 162: if(lt8988_work_sta == SCAN)
  1166  04E3  08BE               	movf	_lt8988_work_sta,f
  1167  04E4  1903               	btfsc	3,2
  1168  04E5  2CD9               	goto	l4901
  1169                           
  1170                           ;main.c: 178: else if(lt8988_work_sta == RXBLE)
  1171  04E6  0B3E               	decfsz	_lt8988_work_sta,w
  1172  04E7  2CE3               	goto	l4899
  1173                           
  1174                           ;main.c: 179: {
  1175                           ;main.c: 181: lt8988_ble_rx();
  1176  04E8  2551               	fcall	_lt8988_ble_rx
  1177  04E9  2CE3               	goto	l4899
  1178  04EA                     __end_of_main:	
  1179                           
  1180                           	psect	text931
  1181  0551                     __ptext931:	
  1182 ;; =============== function _main ends ============
  1183                           
  1184                           
  1185 ;; *************** function _lt8988_ble_rx *****************
  1186 ;; Defined at:
  1187 ;;		line 275 in file "main.c"
  1188 ;; Parameters:    Size  Location     Type
  1189 ;;		None
  1190 ;; Auto vars:     Size  Location     Type
  1191 ;;  i               1    6[BANK0 ] unsigned char 
  1192 ;; Return value:  Size  Location     Type
  1193 ;;		None               void
  1194 ;; Registers used:
  1195 ;;		wreg, fsr0l, fsr0h, status,2, status,0, pclath, cstack
  1196 ;; Tracked objects:
  1197 ;;		On entry : 60/0
  1198 ;;		On exit  : 60/0
  1199 ;;		Unchanged: 0/0
  1200 ;; Data sizes:     COMMON   BANK0   BANK1
  1201 ;;      Params:         0       0       0
  1202 ;;      Locals:         0       1       0
  1203 ;;      Temps:          0       0       0
  1204 ;;      Totals:         0       1       0
  1205 ;;Total ram usage:        1 bytes
  1206 ;; Hardware stack levels used:    1
  1207 ;; Hardware stack levels required when called:    6
  1208 ;; This function calls:
  1209 ;;		_LT8988_ble_rx_enable
  1210 ;;		_ble_chanel_scan
  1211 ;; This function is called by:
  1212 ;;		_main
  1213 ;; This function uses a non-reentrant model
  1214 ;;
  1215  0551                     _lt8988_ble_rx:	
  1216                           
  1217                           ;main.c: 277: unsigned char i;
  1218                           ;main.c: 279: LT8988_ble_rx_enable();
  1219                           
  1220                           ; Regs used in _lt8988_ble_rx: [wreg-fsr0h+status,2+status,0+pclath+cstack]
  1221  0551  2599               	fcall	_LT8988_ble_rx_enable
  1222                           
  1223                           ;main.c: 281: for(i = 0; i < 5; i++)
  1224  0552  01D3               	clrf	lt8988_ble_rx@i
  1225  0553                     l4889:	
  1226                           
  1227                           ;main.c: 282: {
  1228                           ;main.c: 283: ble_chanel_scan(37);
  1229  0553  3025               	movlw	37
  1230  0554  2298               	fcall	_ble_chanel_scan
  1231                           
  1232                           ;main.c: 284: ble_chanel_scan(38);
  1233  0555  3026               	movlw	38
  1234  0556  2298               	fcall	_ble_chanel_scan
  1235                           
  1236                           ;main.c: 285: ble_chanel_scan(39);
  1237  0557  3027               	movlw	39
  1238  0558  2298               	fcall	_ble_chanel_scan
  1239  0559  3005               	movlw	5
  1240  055A  0AD3               	incf	lt8988_ble_rx@i,f
  1241  055B  0253               	subwf	lt8988_ble_rx@i,w
  1242  055C  1803               	btfsc	3,0
  1243  055D  0008               	return
  1244  055E  2D53               	goto	l4889
  1245  055F                     __end_of_lt8988_ble_rx:	
  1246                           
  1247                           	psect	text932
  1248  049E                     __ptext932:	
  1249 ;; =============== function _lt8988_ble_rx ends ============
  1250                           
  1251                           
  1252 ;; *************** function _lt8988_ble_tx *****************
  1253 ;; Defined at:
  1254 ;;		line 204 in file "main.c"
  1255 ;; Parameters:    Size  Location     Type
  1256 ;;		None
  1257 ;; Auto vars:     Size  Location     Type
  1258 ;;		None
  1259 ;; Return value:  Size  Location     Type
  1260 ;;		None               void
  1261 ;; Registers used:
  1262 ;;		wreg, fsr0l, fsr0h, status,2, status,0, pclath, cstack
  1263 ;; Tracked objects:
  1264 ;;		On entry : 60/0
  1265 ;;		On exit  : 60/0
  1266 ;;		Unchanged: 0/0
  1267 ;; Data sizes:     COMMON   BANK0   BANK1
  1268 ;;      Params:         0       0       0
  1269 ;;      Locals:         0       0       0
  1270 ;;      Temps:          0       0       0
  1271 ;;      Totals:         0       0       0
  1272 ;;Total ram usage:        0 bytes
  1273 ;; Hardware stack levels used:    1
  1274 ;; Hardware stack levels required when called:    6
  1275 ;; This function calls:
  1276 ;;		_LT8988_ble_tx_enable
  1277 ;;		_LT8988_ble_tx_start
  1278 ;;		_DelayMs
  1279 ;; This function is called by:
  1280 ;;		_main
  1281 ;; This function uses a non-reentrant model
  1282 ;;
  1283  049E                     _lt8988_ble_tx:	
  1284                           
  1285                           ;main.c: 206: LT8988_ble_tx_enable();
  1286                           
  1287                           ; Regs used in _lt8988_ble_tx: [wreg-fsr0h+status,2+status,0+pclath+cstack]
  1288  049E  2533               	fcall	_LT8988_ble_tx_enable
  1289                           
  1290                           ;main.c: 207: LT8988_ble_tx_start(37, PDUDATA, 26);
  1291  049F  3020               	movlw	_PDUDATA& (0+255)
  1292  04A0  00D8               	movwf	?_LT8988_ble_tx_start
  1293  04A1  301A               	movlw	26
  1294  04A2  00D9               	movwf	?_LT8988_ble_tx_start+1
  1295  04A3  3025               	movlw	37
  1296  04A4  2380               	fcall	_LT8988_ble_tx_start
  1297                           
  1298                           ;main.c: 208: DelayMs(3);
  1299  04A5  3003               	movlw	3
  1300  04A6  24FF               	fcall	_DelayMs
  1301                           
  1302                           ;main.c: 209: LT8988_ble_tx_start(38, PDUDATA, 26);
  1303  04A7  3020               	movlw	_PDUDATA& (0+255)
  1304  04A8  00D8               	movwf	?_LT8988_ble_tx_start
  1305  04A9  301A               	movlw	26
  1306  04AA  00D9               	movwf	?_LT8988_ble_tx_start+1
  1307  04AB  3026               	movlw	38
  1308  04AC  2380               	fcall	_LT8988_ble_tx_start
  1309                           
  1310                           ;main.c: 210: DelayMs(3);
  1311  04AD  3003               	movlw	3
  1312  04AE  24FF               	fcall	_DelayMs
  1313                           
  1314                           ;main.c: 211: LT8988_ble_tx_start(39, PDUDATA, 26);
  1315  04AF  3020               	movlw	_PDUDATA& (0+255)
  1316  04B0  00D8               	movwf	?_LT8988_ble_tx_start
  1317  04B1  301A               	movlw	26
  1318  04B2  00D9               	movwf	?_LT8988_ble_tx_start+1
  1319  04B3  3027               	movlw	39
  1320  04B4  2380               	fcall	_LT8988_ble_tx_start
  1321                           
  1322                           ;main.c: 212: DelayMs(3);
  1323  04B5  3003               	movlw	3
  1324  04B6  24FF               	fcall	_DelayMs
  1325                           
  1326                           ;main.c: 213: RA6 = !RA6;
  1327  04B7  3040               	movlw	64
  1328  04B8  0685               	xorwf	5,f
  1329  04B9  0008               	return
  1330  04BA                     __end_of_lt8988_ble_tx:	
  1331                           
  1332                           	psect	text933
  1333  0298                     __ptext933:	
  1334 ;; =============== function _lt8988_ble_tx ends ============
  1335                           
  1336                           
  1337 ;; *************** function _ble_chanel_scan *****************
  1338 ;; Defined at:
  1339 ;;		line 220 in file "main.c"
  1340 ;; Parameters:    Size  Location     Type
  1341 ;;  chanel          1    wreg     unsigned char 
  1342 ;; Auto vars:     Size  Location     Type
  1343 ;;  chanel          1    4[BANK0 ] unsigned char 
  1344 ;;  i               1    5[BANK0 ] unsigned char 
  1345 ;; Return value:  Size  Location     Type
  1346 ;;		None               void
  1347 ;; Registers used:
  1348 ;;		wreg, fsr0l, fsr0h, status,2, status,0, pclath, cstack
  1349 ;; Tracked objects:
  1350 ;;		On entry : 60/0
  1351 ;;		On exit  : 60/0
  1352 ;;		Unchanged: 0/0
  1353 ;; Data sizes:     COMMON   BANK0   BANK1
  1354 ;;      Params:         0       0       0
  1355 ;;      Locals:         0       2       0
  1356 ;;      Temps:          0       0       0
  1357 ;;      Totals:         0       2       0
  1358 ;;Total ram usage:        2 bytes
  1359 ;; Hardware stack levels used:    1
  1360 ;; Hardware stack levels required when called:    5
  1361 ;; This function calls:
  1362 ;;		_LT8988_ble_rx_start
  1363 ;;		_LT8988_ReadReg
  1364 ;;		_LT8988_read_ble_fifo
  1365 ;;		_check_sum
  1366 ;;		_DelayMs
  1367 ;; This function is called by:
  1368 ;;		_lt8988_ble_rx
  1369 ;; This function uses a non-reentrant model
  1370 ;;
  1371  0298                     _ble_chanel_scan:	
  1372                           
  1373                           ; Regs used in _ble_chanel_scan: [wreg-fsr0h+status,2+status,0+pclath+cstack]
  1374                           ;ble_chanel_scan@chanel stored from wreg
  1375  0298  00D1               	movwf	ble_chanel_scan@chanel
  1376                           
  1377                           ;main.c: 221: unsigned char i;
  1378                           ;main.c: 223: LT8988_ble_rx_start(chanel);
  1379  0299  21A1               	fcall	_LT8988_ble_rx_start
  1380                           
  1381                           ;main.c: 225: for(i = 0; i < 8; i++)
  1382  029A  01D2               	clrf	ble_chanel_scan@i
  1383  029B                     l4839:	
  1384                           
  1385                           ;main.c: 226: {
  1386                           ;main.c: 227: LT8988_ReadReg(3);
  1387  029B  3003               	movlw	3
  1388  029C  24EA               	fcall	_LT8988_ReadReg
  1389                           
  1390                           ;main.c: 228: if(_RegH & 0x20)
  1391  029D  1EBC               	btfss	__RegH,5
  1392  029E  2ACD               	goto	l4863
  1393                           
  1394                           ;main.c: 229: {
  1395                           ;main.c: 230: LT8988_read_ble_fifo(chanel, RXADVDATA, 13);
  1396  029F  3040               	movlw	_RXADVDATA& (0+255)
  1397  02A0  00CF               	movwf	?_LT8988_read_ble_fifo
  1398  02A1  300D               	movlw	13
  1399  02A2  00D0               	movwf	?_LT8988_read_ble_fifo+1
  1400  02A3  0851               	movf	ble_chanel_scan@chanel,w
  1401  02A4  2406               	fcall	_LT8988_read_ble_fifo
  1402                           
  1403                           ;main.c: 232: if(check_sum(RXADVDATA, 10) == 1)
  1404  02A5  300A               	movlw	10
  1405  02A6  00F2               	movwf	?_check_sum
  1406  02A7  3040               	movlw	_RXADVDATA& (0+255)
  1407  02A8  2431               	fcall	_check_sum
  1408  02A9  3A01               	xorlw	1
  1409  02AA  1D03               	skipz
  1410  02AB  2AC4               	goto	l1127
  1411                           
  1412                           ;main.c: 233: {
  1413                           ;main.c: 235: if(RXADVDATA[5] == 0x02)
  1414  02AC  1283               	bcf	3,5	;RP0=0, select bank0
  1415  02AD  1303               	bcf	3,6	;RP1=0, select bank0
  1416  02AE  0845               	movf	_RXADVDATA+5,w
  1417  02AF  3A02               	xorlw	2
  1418  02B0  1D03               	skipz
  1419  02B1  2AB4               	goto	l4849
  1420                           
  1421                           ;main.c: 236: {
  1422                           ;main.c: 237: RA7 = 1;
  1423  02B2  1785               	bsf	5,7
  1424                           
  1425                           ;main.c: 239: }
  1426  02B3  2AC2               	goto	l1129
  1427  02B4                     l4849:	
  1428                           
  1429                           ;main.c: 240: else if(RXADVDATA[5] == 0x01)
  1430  02B4  0B45               	decfsz	_RXADVDATA+5,w
  1431  02B5  2AB8               	goto	l4853
  1432                           
  1433                           ;main.c: 241: {
  1434                           ;main.c: 242: RA7 = 0;
  1435  02B6  1385               	bcf	5,7
  1436                           
  1437                           ;main.c: 244: }
  1438  02B7  2AC2               	goto	l1129
  1439  02B8                     l4853:	
  1440                           
  1441                           ;main.c: 245: else if(RXADVDATA[5] == 0x04)
  1442  02B8  0845               	movf	_RXADVDATA+5,w
  1443  02B9  3A04               	xorlw	4
  1444  02BA  1D03               	skipz
  1445  02BB  2AC2               	goto	l1129
  1446                           
  1447                           ;main.c: 246: {
  1448                           ;main.c: 248: if( ledsta != RXADVDATA[6])
  1449  02BC  0846               	movf	_RXADVDATA+6,w
  1450  02BD  063D               	xorwf	_ledsta,w
  1451  02BE  1903               	skipnz
  1452  02BF  2AC2               	goto	l1129
  1453                           
  1454                           ;main.c: 249: {
  1455                           ;main.c: 250: RA7 = !RA7;
  1456  02C0  3080               	movlw	128
  1457  02C1  0685               	xorwf	5,f
  1458  02C2                     l1129:	
  1459                           
  1460                           ;main.c: 251: }
  1461                           ;main.c: 252: }
  1462                           ;main.c: 253: ledsta = RXADVDATA[6];
  1463  02C2  0846               	movf	_RXADVDATA+6,w
  1464  02C3  00BD               	movwf	_ledsta
  1465  02C4                     l1127:	
  1466                           
  1467                           ;main.c: 254: }
  1468                           ;main.c: 256: i = 9;
  1469  02C4  3009               	movlw	9
  1470  02C5  1283               	bcf	3,5	;RP0=0, select bank0
  1471  02C6  1303               	bcf	3,6	;RP1=0, select bank0
  1472  02C7  00D2               	movwf	ble_chanel_scan@i
  1473                           
  1474                           ;main.c: 258: rxflag = 1;
  1475  02C8  01BF               	clrf	_rxflag
  1476  02C9  0ABF               	incf	_rxflag,f
  1477                           
  1478                           ;main.c: 259: rxtimeout = 0;
  1479  02CA  01BA               	clrf	_rxtimeout
  1480  02CB  01BB               	clrf	_rxtimeout+1
  1481                           
  1482                           ;main.c: 261: }
  1483  02CC  2ACF               	goto	l4865
  1484  02CD                     l4863:	
  1485                           
  1486                           ;main.c: 262: else
  1487                           ;main.c: 263: {
  1488                           ;main.c: 264: DelayMs(2);
  1489  02CD  3002               	movlw	2
  1490  02CE  24FF               	fcall	_DelayMs
  1491  02CF                     l4865:	
  1492  02CF  3008               	movlw	8
  1493  02D0  0AD2               	incf	ble_chanel_scan@i,f
  1494  02D1  0252               	subwf	ble_chanel_scan@i,w
  1495  02D2  1803               	btfsc	3,0
  1496  02D3  0008               	return
  1497  02D4  2A9B               	goto	l4839
  1498  02D5                     __end_of_ble_chanel_scan:	
  1499                           
  1500                           	psect	text934
  1501  0380                     __ptext934:	
  1502 ;; =============== function _ble_chanel_scan ends ============
  1503                           
  1504                           
  1505 ;; *************** function _LT8988_ble_tx_start *****************
  1506 ;; Defined at:
  1507 ;;		line 206 in file "8988_ble.c"
  1508 ;; Parameters:    Size  Location     Type
  1509 ;;  chanel          1    wreg     unsigned char 
  1510 ;;  PDUDATA         1   11[BANK0 ] PTR unsigned char 
  1511 ;;		 -> PDUDATA(26), 
  1512 ;;  len             1   12[BANK0 ] unsigned char 
  1513 ;; Auto vars:     Size  Location     Type
  1514 ;;  chanel          1   10[COMMON] unsigned char 
  1515 ;; Return value:  Size  Location     Type
  1516 ;;		None               void
  1517 ;; Registers used:
  1518 ;;		wreg, fsr0l, fsr0h, status,2, status,0, pclath, cstack
  1519 ;; Tracked objects:
  1520 ;;		On entry : 60/0
  1521 ;;		On exit  : 60/0
  1522 ;;		Unchanged: 0/0
  1523 ;; Data sizes:     COMMON   BANK0   BANK1
  1524 ;;      Params:         0       2       0
  1525 ;;      Locals:         1       0       0
  1526 ;;      Temps:          0       0       0
  1527 ;;      Totals:         1       2       0
  1528 ;;Total ram usage:        3 bytes
  1529 ;; Hardware stack levels used:    1
  1530 ;; Hardware stack levels required when called:    5
  1531 ;; This function calls:
  1532 ;;		_get_crc
  1533 ;;		_LT8988_pdudata_white
  1534 ;;		_LT8988_ble_write_reg
  1535 ;;		_LT8988_write_ble_fifo
  1536 ;; This function is called by:
  1537 ;;		_lt8988_ble_tx
  1538 ;; This function uses a non-reentrant model
  1539 ;;
  1540  0380                     _LT8988_ble_tx_start:	
  1541                           
  1542                           ; Regs used in _LT8988_ble_tx_start: [wreg-fsr0h+status,2+status,0+pclath+cstack]
  1543                           ;LT8988_ble_tx_start@chanel stored from wreg
  1544  0380  00FA               	movwf	LT8988_ble_tx_start@chanel
  1545                           
  1546                           ;8988_ble.c: 207: get_crc(PDUDATA, len);
  1547  0381  0859               	movf	LT8988_ble_tx_start@len,w
  1548  0382  00F6               	movwf	?_get_crc
  1549  0383  0858               	movf	LT8988_ble_tx_start@PDUDATA,w
  1550  0384  200B               	fcall	_get_crc
  1551                           
  1552                           ;8988_ble.c: 208: LT8988_pdudata_white(chanel, PDUDATA, len);
  1553  0385  23A8               	fcall	PL8	;call to abstracted procedure
  1554  0386  225A               	fcall	_LT8988_pdudata_white
  1555                           
  1556                           ;8988_ble.c: 209: LT8988_ble_write_reg(8, 0x6c, 0x90);
  1557  0387  21FA               	fcall	PL5	;call to abstracted procedure
  1558  0388  2585               	fcall	_LT8988_ble_write_reg
  1559                           
  1560                           ;8988_ble.c: 211: LT8988_write_ble_fifo(PDUDATA, len);
  1561  0389  0859               	movf	LT8988_ble_tx_start@len,w
  1562  038A  00F9               	movwf	?_LT8988_write_ble_fifo
  1563  038B  0858               	movf	LT8988_ble_tx_start@PDUDATA,w
  1564  038C  234B               	fcall	_LT8988_write_ble_fifo
  1565                           
  1566                           ;8988_ble.c: 212: if(chanel == 37)
  1567  038D  087A               	movf	LT8988_ble_tx_start@chanel,w
  1568  038E  3A25               	xorlw	37
  1569  038F  1D03               	skipz
  1570  0390  2B96               	goto	l4821
  1571  0391  3007               	movlw	7
  1572                           
  1573                           ;8988_ble.c: 213: {
  1574                           ;8988_ble.c: 214: LT8988_ble_write_reg(7, 0x01, 0);
  1575  0392  01F6               	clrf	?_LT8988_ble_write_reg
  1576  0393  0AF6               	incf	?_LT8988_ble_write_reg,f
  1577  0394  01F7               	clrf	?_LT8988_ble_write_reg+1
  1578  0395  2BA5               	goto	L1
  1579  0396                     l4821:	
  1580                           ;8988_ble.c: 215: }
  1581                           
  1582                           
  1583                           ;8988_ble.c: 216: else if(chanel == 38)
  1584  0396  087A               	movf	LT8988_ble_tx_start@chanel,w
  1585  0397  3A26               	xorlw	38
  1586  0398  1D03               	skipz
  1587  0399  2B9C               	goto	l4825
  1588  039A  3018               	movlw	24
  1589  039B  2BA1               	goto	L2
  1590  039C                     l4825:	
  1591                           ;8988_ble.c: 219: }
  1592                           
  1593                           ;8988_ble.c: 217: {
  1594                           ;8988_ble.c: 218: LT8988_ble_write_reg(7, 0x01, 24);
  1595                           
  1596                           
  1597                           ;8988_ble.c: 220: else if(chanel == 39)
  1598  039C  087A               	movf	LT8988_ble_tx_start@chanel,w
  1599  039D  3A27               	xorlw	39
  1600  039E  1D03               	skipz
  1601  039F  2BA6               	goto	l4829
  1602  03A0  304E               	movlw	78
  1603  03A1                     L2:	
  1604                           
  1605                           ;8988_ble.c: 221: {
  1606                           ;8988_ble.c: 222: LT8988_ble_write_reg(7, 0x01, 78);
  1607  03A1  01F6               	clrf	?_LT8988_ble_write_reg
  1608  03A2  0AF6               	incf	?_LT8988_ble_write_reg,f
  1609  03A3  00F7               	movwf	?_LT8988_ble_write_reg+1
  1610  03A4  3007               	movlw	7
  1611  03A5                     L1:	
  1612  03A5  2585               	fcall	_LT8988_ble_write_reg
  1613  03A6                     l4829:	
  1614                           
  1615                           ;8988_ble.c: 223: }
  1616                           ;8988_ble.c: 224: LT8988_pdudata_white(chanel, PDUDATA, len);
  1617  03A6  23A8               	fcall	PL8	;call to abstracted procedure
  1618  03A7  2A5A               	ljmp	_LT8988_pdudata_white
  1619  03A8                     __end_of_LT8988_ble_tx_start:	
  1620  03A8                     PL8:	
  1621  03A8  0858               	movf	LT8988_ble_tx_start@PDUDATA,w
  1622  03A9  00F2               	movwf	?_LT8988_pdudata_white
  1623  03AA  0859               	movf	LT8988_ble_tx_start@len,w
  1624  03AB  00F3               	movwf	?_LT8988_pdudata_white+1
  1625  03AC  087A               	movf	LT8988_ble_tx_start@chanel,w
  1626  03AD  0008               	return
  1627                           
  1628                           	psect	text935
  1629  034B                     __ptext935:	
  1630 ;; =============== function _LT8988_ble_tx_start ends ============
  1631                           
  1632                           
  1633 ;; *************** function _LT8988_write_ble_fifo *****************
  1634 ;; Defined at:
  1635 ;;		line 175 in file "8988_ble.c"
  1636 ;; Parameters:    Size  Location     Type
  1637 ;;  txdata          1    wreg     PTR unsigned char 
  1638 ;;		 -> PDUDATA(26), 
  1639 ;;  len             1    9[COMMON] unsigned char 
  1640 ;; Auto vars:     Size  Location     Type
  1641 ;;  txdata          1    3[BANK0 ] PTR unsigned char 
  1642 ;;		 -> PDUDATA(26), 
  1643 ;;  i               1    2[BANK0 ] unsigned char 
  1644 ;; Return value:  Size  Location     Type
  1645 ;;		None               void
  1646 ;; Registers used:
  1647 ;;		wreg, fsr0l, fsr0h, status,2, status,0, pclath, cstack
  1648 ;; Tracked objects:
  1649 ;;		On entry : 60/0
  1650 ;;		On exit  : 60/0
  1651 ;;		Unchanged: 0/0
  1652 ;; Data sizes:     COMMON   BANK0   BANK1
  1653 ;;      Params:         1       0       0
  1654 ;;      Locals:         0       2       0
  1655 ;;      Temps:          0       2       0
  1656 ;;      Totals:         1       4       0
  1657 ;;Total ram usage:        5 bytes
  1658 ;; Hardware stack levels used:    1
  1659 ;; Hardware stack levels required when called:    4
  1660 ;; This function calls:
  1661 ;;		_LT8988_ble_write_reg
  1662 ;; This function is called by:
  1663 ;;		_LT8988_ble_tx_start
  1664 ;; This function uses a non-reentrant model
  1665 ;;
  1666  034B                     _LT8988_write_ble_fifo:	
  1667                           
  1668                           ; Regs used in _LT8988_write_ble_fifo: [wreg-fsr0h+status,2+status,0+pclath+cstack]
  1669                           ;LT8988_write_ble_fifo@txdata stored from wreg
  1670  034B  00D0               	movwf	LT8988_write_ble_fifo@txdata
  1671  034C  3007               	movlw	7
  1672                           
  1673                           ;8988_ble.c: 176: unsigned char i;
  1674                           ;8988_ble.c: 177: LT8988_ble_write_reg(7, 0x00, 0x00);
  1675  034D  01F6               	clrf	?_LT8988_ble_write_reg
  1676  034E  01F7               	clrf	?_LT8988_ble_write_reg+1
  1677  034F  2585               	fcall	_LT8988_ble_write_reg
  1678                           
  1679                           ;8988_ble.c: 178: LT8988_ble_write_reg(52, 0x80, 0x80);
  1680  0350  21FF               	fcall	PL9	;call to abstracted procedure
  1681  0351  2585               	fcall	_LT8988_ble_write_reg
  1682                           
  1683                           ;8988_ble.c: 180: LT8988_ble_write_reg(50, 0xd6, 0xbe );
  1684  0352  30D6               	movlw	214
  1685  0353  00F6               	movwf	?_LT8988_ble_write_reg
  1686  0354  30BE               	movlw	190
  1687  0355  00F7               	movwf	?_LT8988_ble_write_reg+1
  1688  0356  3032               	movlw	50
  1689  0357  2585               	fcall	_LT8988_ble_write_reg
  1690                           
  1691                           ;8988_ble.c: 181: LT8988_ble_write_reg(50, 0x89 , 0x8e );
  1692  0358  3089               	movlw	137
  1693  0359  00F6               	movwf	?_LT8988_ble_write_reg
  1694  035A  308E               	movlw	142
  1695  035B  00F7               	movwf	?_LT8988_ble_write_reg+1
  1696  035C  3032               	movlw	50
  1697  035D  2585               	fcall	_LT8988_ble_write_reg
  1698                           
  1699                           ;8988_ble.c: 182: LT8988_ble_write_reg(50, txdata[0], txdata[1]);
  1700  035E  0850               	movf	LT8988_write_ble_fifo@txdata,w
  1701  035F  0084               	movwf	4
  1702  0360  1383               	bcf	3,7	;select IRP bank0
  1703  0361  0800               	movf	0,w
  1704  0362  00F6               	movwf	?_LT8988_ble_write_reg
  1705  0363  0850               	movf	LT8988_write_ble_fifo@txdata,w
  1706  0364  237B               	fcall	PL7	;call to abstracted procedure
  1707  0365  2585               	fcall	_LT8988_ble_write_reg
  1708                           
  1709                           ;8988_ble.c: 184: for(i = 2; i < len; i = i + 2)
  1710  0366  3002               	movlw	2
  1711  0367  00CF               	movwf	LT8988_write_ble_fifo@i
  1712  0368                     l4809:	
  1713  0368  0879               	movf	LT8988_write_ble_fifo@len,w
  1714  0369  024F               	subwf	LT8988_write_ble_fifo@i,w
  1715  036A  1803               	btfsc	3,0
  1716  036B  0008               	return
  1717                           
  1718                           ;8988_ble.c: 185: {
  1719                           ;8988_ble.c: 186: LT8988_ble_write_reg(50, txdata[i], txdata[i + 1]);
  1720  036C  084F               	movf	LT8988_write_ble_fifo@i,w
  1721  036D  0750               	addwf	LT8988_write_ble_fifo@txdata,w
  1722  036E  00CD               	movwf	??_LT8988_write_ble_fifo
  1723  036F  0084               	movwf	4
  1724  0370  1383               	bcf	3,7	;select IRP bank0
  1725  0371  0800               	movf	0,w
  1726  0372  00F6               	movwf	?_LT8988_ble_write_reg
  1727  0373  084F               	movf	LT8988_write_ble_fifo@i,w
  1728  0374  0750               	addwf	LT8988_write_ble_fifo@txdata,w
  1729  0375  00CE               	movwf	??_LT8988_write_ble_fifo+1
  1730  0376  237B               	fcall	PL7	;call to abstracted procedure
  1731  0377  2585               	fcall	_LT8988_ble_write_reg
  1732  0378  0ACF               	incf	LT8988_write_ble_fifo@i,f
  1733  0379  0ACF               	incf	LT8988_write_ble_fifo@i,f
  1734  037A  2B68               	goto	l4809
  1735  037B                     __end_of_LT8988_write_ble_fifo:	
  1736  037B                     PL7:	
  1737  037B  3E01               	addlw	1
  1738  037C  0084               	movwf	4
  1739  037D  0800               	movf	0,w
  1740  037E  00F7               	movwf	?_LT8988_ble_write_reg+1
  1741  037F  3432               	retlw	50
  1742                           
  1743                           	psect	text936
  1744  0599                     __ptext936:	
  1745 ;; =============== function _LT8988_write_ble_fifo ends ============
  1746                           
  1747                           
  1748 ;; *************** function _LT8988_ble_rx_enable *****************
  1749 ;; Defined at:
  1750 ;;		line 232 in file "8988_ble.c"
  1751 ;; Parameters:    Size  Location     Type
  1752 ;;		None
  1753 ;; Auto vars:     Size  Location     Type
  1754 ;;		None
  1755 ;; Return value:  Size  Location     Type
  1756 ;;		None               void
  1757 ;; Registers used:
  1758 ;;		wreg, status,2, status,0, pclath, cstack
  1759 ;; Tracked objects:
  1760 ;;		On entry : 60/0
  1761 ;;		On exit  : 60/0
  1762 ;;		Unchanged: 0/0
  1763 ;; Data sizes:     COMMON   BANK0   BANK1
  1764 ;;      Params:         0       0       0
  1765 ;;      Locals:         0       0       0
  1766 ;;      Temps:          0       0       0
  1767 ;;      Totals:         0       0       0
  1768 ;;Total ram usage:        0 bytes
  1769 ;; Hardware stack levels used:    1
  1770 ;; Hardware stack levels required when called:    4
  1771 ;; This function calls:
  1772 ;;		_LT8988_ble_write_reg
  1773 ;; This function is called by:
  1774 ;;		_lt8988_ble_rx
  1775 ;; This function uses a non-reentrant model
  1776 ;;
  1777  0599                     _LT8988_ble_rx_enable:	
  1778                           
  1779                           ;8988_ble.c: 234: LT8988_ble_write_reg(32, 0x4A, 0x00);
  1780                           
  1781                           ; Regs used in _LT8988_ble_rx_enable: [wreg+status,2+status,0+pclath+cstack]
  1782  0599  304A               	movlw	74
  1783  059A  00F6               	movwf	?_LT8988_ble_write_reg
  1784  059B  3020               	movlw	32
  1785  059C  01F7               	clrf	?_LT8988_ble_write_reg+1
  1786  059D  2D85               	ljmp	_LT8988_ble_write_reg
  1787  059E                     __end_of_LT8988_ble_rx_enable:	
  1788                           
  1789                           	psect	text937
  1790  0406                     __ptext937:	
  1791 ;; =============== function _LT8988_ble_rx_enable ends ============
  1792                           
  1793                           
  1794 ;; *************** function _LT8988_read_ble_fifo *****************
  1795 ;; Defined at:
  1796 ;;		line 308 in file "8988_ble.c"
  1797 ;; Parameters:    Size  Location     Type
  1798 ;;  chanel          1    wreg     unsigned char 
  1799 ;;  RXADVDATA       1    2[BANK0 ] PTR unsigned char 
  1800 ;;		 -> RXADVDATA(13), 
  1801 ;;  len             1    3[BANK0 ] unsigned char 
  1802 ;; Auto vars:     Size  Location     Type
  1803 ;;  chanel          1   10[COMMON] unsigned char 
  1804 ;; Return value:  Size  Location     Type
  1805 ;;		None               void
  1806 ;; Registers used:
  1807 ;;		wreg, fsr0l, fsr0h, status,2, status,0, pclath, cstack
  1808 ;; Tracked objects:
  1809 ;;		On entry : 60/0
  1810 ;;		On exit  : 60/0
  1811 ;;		Unchanged: 0/0
  1812 ;; Data sizes:     COMMON   BANK0   BANK1
  1813 ;;      Params:         0       2       0
  1814 ;;      Locals:         1       0       0
  1815 ;;      Temps:          0       0       0
  1816 ;;      Totals:         1       2       0
  1817 ;;Total ram usage:        3 bytes
  1818 ;; Hardware stack levels used:    1
  1819 ;; Hardware stack levels required when called:    4
  1820 ;; This function calls:
  1821 ;;		_LT8988_ble_write_reg
  1822 ;;		_ble_read_fifo
  1823 ;;		_LT8988_ble_to_localdata
  1824 ;; This function is called by:
  1825 ;;		_ble_chanel_scan
  1826 ;; This function uses a non-reentrant model
  1827 ;;
  1828  0406                     _LT8988_read_ble_fifo:	
  1829                           
  1830                           ; Regs used in _LT8988_read_ble_fifo: [wreg-fsr0h+status,2+status,0+pclath+cstack]
  1831                           ;LT8988_read_ble_fifo@chanel stored from wreg
  1832  0406  00FA               	movwf	LT8988_read_ble_fifo@chanel
  1833  0407  3007               	movlw	7
  1834                           
  1835                           ;8988_ble.c: 310: LT8988_ble_write_reg(7, 0x00, 0x00);
  1836  0408  01F6               	clrf	?_LT8988_ble_write_reg
  1837  0409  01F7               	clrf	?_LT8988_ble_write_reg+1
  1838  040A  2585               	fcall	_LT8988_ble_write_reg
  1839                           
  1840                           ;8988_ble.c: 311: ble_read_fifo(RXADVDATA);
  1841  040B  084F               	movf	LT8988_read_ble_fifo@RXADVDATA,w
  1842  040C  259E               	fcall	_ble_read_fifo
  1843                           
  1844                           ;8988_ble.c: 312: if(chanel == 37)
  1845  040D  087A               	movf	LT8988_read_ble_fifo@chanel,w
  1846  040E  3A25               	xorlw	37
  1847  040F  1D03               	skipz
  1848  0410  2C19               	goto	l4789
  1849                           
  1850                           ;8988_ble.c: 313: {
  1851                           ;8988_ble.c: 314: LT8988_ble_to_localdata(chanel, RXADVDATA, len, 16);
  1852  0411  084F               	movf	LT8988_read_ble_fifo@RXADVDATA,w
  1853  0412  00F2               	movwf	?_LT8988_ble_to_localdata
  1854  0413  0850               	movf	LT8988_read_ble_fifo@len,w
  1855  0414  00F3               	movwf	?_LT8988_ble_to_localdata+1
  1856  0415  3010               	movlw	16
  1857  0416  00F4               	movwf	?_LT8988_ble_to_localdata+2
  1858  0417  087A               	movf	LT8988_read_ble_fifo@chanel,w
  1859  0418  28A5               	ljmp	_LT8988_ble_to_localdata
  1860  0419                     l4789:	
  1861                           ;8988_ble.c: 316: }
  1862                           
  1863                           
  1864                           ;8988_ble.c: 317: else if(chanel == 38)
  1865  0419  087A               	movf	LT8988_read_ble_fifo@chanel,w
  1866  041A  3A26               	xorlw	38
  1867  041B  1D03               	skipz
  1868  041C  2C25               	goto	l4793
  1869                           
  1870                           ;8988_ble.c: 318: {
  1871                           ;8988_ble.c: 319: LT8988_ble_to_localdata(chanel, RXADVDATA, len, 17);
  1872  041D  084F               	movf	LT8988_read_ble_fifo@RXADVDATA,w
  1873  041E  00F2               	movwf	?_LT8988_ble_to_localdata
  1874  041F  0850               	movf	LT8988_read_ble_fifo@len,w
  1875  0420  00F3               	movwf	?_LT8988_ble_to_localdata+1
  1876  0421  3011               	movlw	17
  1877  0422  00F4               	movwf	?_LT8988_ble_to_localdata+2
  1878  0423  087A               	movf	LT8988_read_ble_fifo@chanel,w
  1879  0424  28A5               	ljmp	_LT8988_ble_to_localdata
  1880  0425                     l4793:	
  1881                           ;8988_ble.c: 320: }
  1882                           
  1883                           
  1884                           ;8988_ble.c: 321: else if(chanel == 39)
  1885  0425  087A               	movf	LT8988_read_ble_fifo@chanel,w
  1886  0426  3A27               	xorlw	39
  1887  0427  1D03               	skipz
  1888  0428  0008               	return
  1889                           
  1890                           ;8988_ble.c: 322: {
  1891                           ;8988_ble.c: 323: LT8988_ble_to_localdata(chanel, RXADVDATA, len, 18);
  1892  0429  084F               	movf	LT8988_read_ble_fifo@RXADVDATA,w
  1893  042A  00F2               	movwf	?_LT8988_ble_to_localdata
  1894  042B  0850               	movf	LT8988_read_ble_fifo@len,w
  1895  042C  00F3               	movwf	?_LT8988_ble_to_localdata+1
  1896  042D  3012               	movlw	18
  1897  042E  00F4               	movwf	?_LT8988_ble_to_localdata+2
  1898  042F  087A               	movf	LT8988_read_ble_fifo@chanel,w
  1899  0430  28A5               	ljmp	_LT8988_ble_to_localdata
  1900  0431                     __end_of_LT8988_read_ble_fifo:	
  1901                           
  1902                           	psect	text938
  1903  01A1                     __ptext938:	
  1904 ;; =============== function _LT8988_read_ble_fifo ends ============
  1905                           
  1906                           
  1907 ;; *************** function _LT8988_ble_rx_start *****************
  1908 ;; Defined at:
  1909 ;;		line 238 in file "8988_ble.c"
  1910 ;; Parameters:    Size  Location     Type
  1911 ;;  chanel          1    wreg     unsigned char 
  1912 ;; Auto vars:     Size  Location     Type
  1913 ;;  chanel          1    9[COMMON] unsigned char 
  1914 ;; Return value:  Size  Location     Type
  1915 ;;		None               void
  1916 ;; Registers used:
  1917 ;;		wreg, status,2, status,0, pclath, cstack
  1918 ;; Tracked objects:
  1919 ;;		On entry : 60/0
  1920 ;;		On exit  : 60/0
  1921 ;;		Unchanged: 0/0
  1922 ;; Data sizes:     COMMON   BANK0   BANK1
  1923 ;;      Params:         0       0       0
  1924 ;;      Locals:         1       0       0
  1925 ;;      Temps:          0       0       0
  1926 ;;      Totals:         1       0       0
  1927 ;;Total ram usage:        1 bytes
  1928 ;; Hardware stack levels used:    1
  1929 ;; Hardware stack levels required when called:    4
  1930 ;; This function calls:
  1931 ;;		_LT8988_ble_write_reg
  1932 ;; This function is called by:
  1933 ;;		_ble_chanel_scan
  1934 ;; This function uses a non-reentrant model
  1935 ;;
  1936  01A1                     _LT8988_ble_rx_start:	
  1937                           
  1938                           ; Regs used in _LT8988_ble_rx_start: [wreg+status,2+status,0+pclath+cstack]
  1939                           ;LT8988_ble_rx_start@chanel stored from wreg
  1940  01A1  00F9               	movwf	LT8988_ble_rx_start@chanel
  1941                           
  1942                           ;8988_ble.c: 240: if(chanel == 37)
  1943  01A2  3A25               	xorlw	37
  1944  01A3  1D03               	skipz
  1945  01A4  29BE               	goto	l4773
  1946                           
  1947                           ;8988_ble.c: 241: {
  1948                           ;8988_ble.c: 244: LT8988_ble_write_reg(36, 0x91, 0x59);
  1949  01A5  3091               	movlw	145
  1950  01A6  00F6               	movwf	?_LT8988_ble_write_reg
  1951  01A7  3059               	movlw	89
  1952  01A8  00F7               	movwf	?_LT8988_ble_write_reg+1
  1953  01A9  3024               	movlw	36
  1954  01AA  2585               	fcall	_LT8988_ble_write_reg
  1955                           
  1956                           ;8988_ble.c: 245: LT8988_ble_write_reg(39, 0x24, 0x70);
  1957  01AB  3024               	movlw	36
  1958  01AC  00F6               	movwf	?_LT8988_ble_write_reg
  1959  01AD  3070               	movlw	112
  1960  01AE  00F7               	movwf	?_LT8988_ble_write_reg+1
  1961  01AF  3027               	movlw	39
  1962  01B0  2585               	fcall	_LT8988_ble_write_reg
  1963  01B1  3007               	movlw	7
  1964                           
  1965                           ;8988_ble.c: 247: LT8988_ble_write_reg(7, 0, 0);
  1966  01B2  01F6               	clrf	?_LT8988_ble_write_reg
  1967  01B3  01F7               	clrf	?_LT8988_ble_write_reg+1
  1968  01B4  2585               	fcall	_LT8988_ble_write_reg
  1969                           
  1970                           ;8988_ble.c: 248: LT8988_ble_write_reg(8, 0x6c, 0x90);
  1971  01B5  21FA               	fcall	PL5	;call to abstracted procedure
  1972  01B6  2585               	fcall	_LT8988_ble_write_reg
  1973                           
  1974                           ;8988_ble.c: 249: LT8988_ble_write_reg(52, 0x80, 0x80);
  1975  01B7  21FF               	fcall	PL9	;call to abstracted procedure
  1976  01B8  2585               	fcall	_LT8988_ble_write_reg
  1977  01B9  3080               	movlw	128
  1978                           
  1979                           ;8988_ble.c: 250: LT8988_ble_write_reg(7, 0, 0 | 0X80);
  1980  01BA  01F6               	clrf	?_LT8988_ble_write_reg
  1981  01BB  00F7               	movwf	?_LT8988_ble_write_reg+1
  1982  01BC  3007               	movlw	7
  1983  01BD  2D85               	ljmp	_LT8988_ble_write_reg
  1984  01BE                     l4773:	
  1985                           ;8988_ble.c: 251: }
  1986                           
  1987                           
  1988                           ;8988_ble.c: 252: else if(chanel == 38)
  1989  01BE  0879               	movf	LT8988_ble_rx_start@chanel,w
  1990  01BF  3A26               	xorlw	38
  1991  01C0  1D03               	skipz
  1992  01C1  29DC               	goto	l4777
  1993  01C2  3018               	movlw	24
  1994                           
  1995                           ;8988_ble.c: 253: {
  1996                           ;8988_ble.c: 256: LT8988_ble_write_reg(7, 0, 24);
  1997  01C3  01F6               	clrf	?_LT8988_ble_write_reg
  1998  01C4  00F7               	movwf	?_LT8988_ble_write_reg+1
  1999  01C5  3007               	movlw	7
  2000  01C6  2585               	fcall	_LT8988_ble_write_reg
  2001                           
  2002                           ;8988_ble.c: 257: LT8988_ble_write_reg(8, 0x6c, 0x90);
  2003  01C7  21FA               	fcall	PL5	;call to abstracted procedure
  2004  01C8  2585               	fcall	_LT8988_ble_write_reg
  2005                           
  2006                           ;8988_ble.c: 258: LT8988_ble_write_reg(36, 0x49, 0x7c);
  2007  01C9  3049               	movlw	73
  2008  01CA  00F6               	movwf	?_LT8988_ble_write_reg
  2009  01CB  307C               	movlw	124
  2010  01CC  00F7               	movwf	?_LT8988_ble_write_reg+1
  2011  01CD  3024               	movlw	36
  2012  01CE  2585               	fcall	_LT8988_ble_write_reg
  2013                           
  2014                           ;8988_ble.c: 259: LT8988_ble_write_reg(39, 0x8e, 0x11);
  2015  01CF  308E               	movlw	142
  2016  01D0  00F6               	movwf	?_LT8988_ble_write_reg
  2017  01D1  3011               	movlw	17
  2018  01D2  00F7               	movwf	?_LT8988_ble_write_reg+1
  2019  01D3  3027               	movlw	39
  2020  01D4  2585               	fcall	_LT8988_ble_write_reg
  2021                           
  2022                           ;8988_ble.c: 262: LT8988_ble_write_reg(52, 0x80, 0x80);
  2023  01D5  21FF               	fcall	PL9	;call to abstracted procedure
  2024  01D6  2585               	fcall	_LT8988_ble_write_reg
  2025  01D7  3098               	movlw	152
  2026                           
  2027                           ;8988_ble.c: 263: LT8988_ble_write_reg(7, 0, 24 | 0X80);
  2028  01D8  01F6               	clrf	?_LT8988_ble_write_reg
  2029  01D9  00F7               	movwf	?_LT8988_ble_write_reg+1
  2030  01DA  3007               	movlw	7
  2031  01DB  2D85               	ljmp	_LT8988_ble_write_reg
  2032  01DC                     l4777:	
  2033                           ;8988_ble.c: 265: }
  2034                           
  2035                           
  2036                           ;8988_ble.c: 266: else if(chanel == 39)
  2037  01DC  0879               	movf	LT8988_ble_rx_start@chanel,w
  2038  01DD  3A27               	xorlw	39
  2039  01DE  1D03               	skipz
  2040  01DF  0008               	return
  2041  01E0  304E               	movlw	78
  2042                           
  2043                           ;8988_ble.c: 267: {
  2044                           ;8988_ble.c: 269: LT8988_ble_write_reg(7, 0, 78);
  2045  01E1  01F6               	clrf	?_LT8988_ble_write_reg
  2046  01E2  00F7               	movwf	?_LT8988_ble_write_reg+1
  2047  01E3  3007               	movlw	7
  2048  01E4  2585               	fcall	_LT8988_ble_write_reg
  2049                           
  2050                           ;8988_ble.c: 270: LT8988_ble_write_reg(8, 0x6c, 0x90);
  2051  01E5  21FA               	fcall	PL5	;call to abstracted procedure
  2052  01E6  2585               	fcall	_LT8988_ble_write_reg
  2053                           
  2054                           ;8988_ble.c: 271: LT8988_ble_write_reg(36, 0x02, 0x5e);
  2055  01E7  3002               	movlw	2
  2056  01E8  00F6               	movwf	?_LT8988_ble_write_reg
  2057  01E9  305E               	movlw	94
  2058  01EA  00F7               	movwf	?_LT8988_ble_write_reg+1
  2059  01EB  3024               	movlw	36
  2060  01EC  2585               	fcall	_LT8988_ble_write_reg
  2061                           
  2062                           ;8988_ble.c: 272: LT8988_ble_write_reg(39, 0xc6, 0x0f);
  2063  01ED  30C6               	movlw	198
  2064  01EE  00F6               	movwf	?_LT8988_ble_write_reg
  2065  01EF  300F               	movlw	15
  2066  01F0  00F7               	movwf	?_LT8988_ble_write_reg+1
  2067  01F1  3027               	movlw	39
  2068  01F2  2585               	fcall	_LT8988_ble_write_reg
  2069                           
  2070                           ;8988_ble.c: 275: LT8988_ble_write_reg(52, 0x80, 0x80);
  2071  01F3  21FF               	fcall	PL9	;call to abstracted procedure
  2072  01F4  2585               	fcall	_LT8988_ble_write_reg
  2073  01F5  30CE               	movlw	206
  2074                           
  2075                           ;8988_ble.c: 276: LT8988_ble_write_reg(7, 0, 78 | 0X80);
  2076  01F6  01F6               	clrf	?_LT8988_ble_write_reg
  2077  01F7  00F7               	movwf	?_LT8988_ble_write_reg+1
  2078  01F8  3007               	movlw	7
  2079  01F9  2D85               	ljmp	_LT8988_ble_write_reg
  2080  01FA                     __end_of_LT8988_ble_rx_start:	
  2081  01FA                     PL5:	
  2082  01FA  306C               	movlw	108
  2083  01FB  00F6               	movwf	?_LT8988_ble_write_reg
  2084  01FC  3090               	movlw	144
  2085  01FD  00F7               	movwf	?_LT8988_ble_write_reg+1
  2086  01FE  3408               	retlw	8
  2087  01FF                     PL9:	
  2088  01FF  3080               	movlw	128
  2089  0200  00F6               	movwf	?_LT8988_ble_write_reg
  2090  0201  00F7               	movwf	?_LT8988_ble_write_reg+1
  2091  0202  3434               	retlw	52
  2092                           
  2093                           	psect	text939
  2094  0533                     __ptext939:	
  2095 ;; =============== function _LT8988_ble_rx_start ends ============
  2096                           
  2097                           
  2098 ;; *************** function _LT8988_ble_tx_enable *****************
  2099 ;; Defined at:
  2100 ;;		line 196 in file "8988_ble.c"
  2101 ;; Parameters:    Size  Location     Type
  2102 ;;		None
  2103 ;; Auto vars:     Size  Location     Type
  2104 ;;		None
  2105 ;; Return value:  Size  Location     Type
  2106 ;;		None               void
  2107 ;; Registers used:
  2108 ;;		wreg, status,2, status,0, pclath, cstack
  2109 ;; Tracked objects:
  2110 ;;		On entry : 60/0
  2111 ;;		On exit  : 60/0
  2112 ;;		Unchanged: 0/0
  2113 ;; Data sizes:     COMMON   BANK0   BANK1
  2114 ;;      Params:         0       0       0
  2115 ;;      Locals:         0       0       0
  2116 ;;      Temps:          0       0       0
  2117 ;;      Totals:         0       0       0
  2118 ;;Total ram usage:        0 bytes
  2119 ;; Hardware stack levels used:    1
  2120 ;; Hardware stack levels required when called:    4
  2121 ;; This function calls:
  2122 ;;		_LT8988_ble_write_reg
  2123 ;; This function is called by:
  2124 ;;		_lt8988_ble_tx
  2125 ;; This function uses a non-reentrant model
  2126 ;;
  2127  0533                     _LT8988_ble_tx_enable:	
  2128                           
  2129                           ;8988_ble.c: 199: LT8988_ble_write_reg(32, 0x48, 0x00);
  2130                           
  2131                           ; Regs used in _LT8988_ble_tx_enable: [wreg+status,2+status,0+pclath+cstack]
  2132  0533  3048               	movlw	72
  2133  0534  00F6               	movwf	?_LT8988_ble_write_reg
  2134  0535  3020               	movlw	32
  2135  0536  01F7               	clrf	?_LT8988_ble_write_reg+1
  2136  0537  2585               	fcall	_LT8988_ble_write_reg
  2137                           
  2138                           ;8988_ble.c: 200: LT8988_ble_write_reg(36, 0xAA, 0xaa);
  2139  0538  30AA               	movlw	170
  2140  0539  00F6               	movwf	?_LT8988_ble_write_reg
  2141  053A  00F7               	movwf	?_LT8988_ble_write_reg+1
  2142  053B  3024               	movlw	36
  2143  053C  2585               	fcall	_LT8988_ble_write_reg
  2144                           
  2145                           ;8988_ble.c: 201: LT8988_ble_write_reg(39, 0xAA, 0xaa);
  2146  053D  30AA               	movlw	170
  2147  053E  00F6               	movwf	?_LT8988_ble_write_reg
  2148  053F  00F7               	movwf	?_LT8988_ble_write_reg+1
  2149  0540  3027               	movlw	39
  2150  0541  2D85               	ljmp	_LT8988_ble_write_reg
  2151  0542                     __end_of_LT8988_ble_tx_enable:	
  2152                           
  2153                           	psect	text940
  2154  059E                     __ptext940:	
  2155 ;; =============== function _LT8988_ble_tx_enable ends ============
  2156                           
  2157                           
  2158 ;; *************** function _ble_read_fifo *****************
  2159 ;; Defined at:
  2160 ;;		line 8 in file "BLE_IIC.C"
  2161 ;; Parameters:    Size  Location     Type
  2162 ;;  buf             1    wreg     PTR unsigned char 
  2163 ;;		 -> RXADVDATA(13), 
  2164 ;; Auto vars:     Size  Location     Type
  2165 ;;  buf             1    8[COMMON] PTR unsigned char 
  2166 ;;		 -> RXADVDATA(13), 
  2167 ;; Return value:  Size  Location     Type
  2168 ;;		None               void
  2169 ;; Registers used:
  2170 ;;		wreg, fsr0l, fsr0h, status,2, status,0, pclath, cstack
  2171 ;; Tracked objects:
  2172 ;;		On entry : 60/0
  2173 ;;		On exit  : 60/0
  2174 ;;		Unchanged: 0/0
  2175 ;; Data sizes:     COMMON   BANK0   BANK1
  2176 ;;      Params:         0       0       0
  2177 ;;      Locals:         1       0       0
  2178 ;;      Temps:          0       0       0
  2179 ;;      Totals:         1       0       0
  2180 ;;Total ram usage:        1 bytes
  2181 ;; Hardware stack levels used:    1
  2182 ;; Hardware stack levels required when called:    3
  2183 ;; This function calls:
  2184 ;;		_LT8988_ReadBUF
  2185 ;; This function is called by:
  2186 ;;		_LT8988_read_ble_fifo
  2187 ;; This function uses a non-reentrant model
  2188 ;;
  2189  059E                     _ble_read_fifo:	
  2190                           
  2191                           ; Regs used in _ble_read_fifo: [wreg-fsr0h+status,2+status,0+pclath+cstack]
  2192                           ;ble_read_fifo@buf stored from wreg
  2193  059E  00F8               	movwf	ble_read_fifo@buf
  2194                           
  2195                           ;BLE_IIC.C: 10: LT8988_ReadBUF(buf);
  2196  059F  0878               	movf	ble_read_fifo@buf,w
  2197  05A0  2AD5               	ljmp	_LT8988_ReadBUF
  2198  05A1                     __end_of_ble_read_fifo:	
  2199                           
  2200                           	psect	text941
  2201  0585                     __ptext941:	
  2202 ;; =============== function _ble_read_fifo ends ============
  2203                           
  2204                           
  2205 ;; *************** function _LT8988_ble_write_reg *****************
  2206 ;; Defined at:
  2207 ;;		line 2 in file "BLE_IIC.C"
  2208 ;; Parameters:    Size  Location     Type
  2209 ;;  reg             1    wreg     unsigned char 
  2210 ;;  first           1    6[COMMON] unsigned char 
  2211 ;;  second          1    7[COMMON] unsigned char 
  2212 ;; Auto vars:     Size  Location     Type
  2213 ;;  reg             1    8[COMMON] unsigned char 
  2214 ;; Return value:  Size  Location     Type
  2215 ;;		None               void
  2216 ;; Registers used:
  2217 ;;		wreg, status,2, status,0, pclath, cstack
  2218 ;; Tracked objects:
  2219 ;;		On entry : 60/0
  2220 ;;		On exit  : 60/0
  2221 ;;		Unchanged: 0/0
  2222 ;; Data sizes:     COMMON   BANK0   BANK1
  2223 ;;      Params:         2       0       0
  2224 ;;      Locals:         1       0       0
  2225 ;;      Temps:          0       0       0
  2226 ;;      Totals:         3       0       0
  2227 ;;Total ram usage:        3 bytes
  2228 ;; Hardware stack levels used:    1
  2229 ;; Hardware stack levels required when called:    3
  2230 ;; This function calls:
  2231 ;;		_LT8988_WriteReg
  2232 ;; This function is called by:
  2233 ;;		_LT8988_write_ble_fifo
  2234 ;;		_LT8988_ble_tx_enable
  2235 ;;		_LT8988_ble_tx_start
  2236 ;;		_LT8988_ble_rx_enable
  2237 ;;		_LT8988_ble_rx_start
  2238 ;;		_LT8988_read_ble_fifo
  2239 ;; This function uses a non-reentrant model
  2240 ;;
  2241  0585                     _LT8988_ble_write_reg:	
  2242                           
  2243                           ; Regs used in _LT8988_ble_write_reg: [wreg+status,2+status,0+pclath+cstack]
  2244                           ;LT8988_ble_write_reg@reg stored from wreg
  2245  0585  00F8               	movwf	LT8988_ble_write_reg@reg
  2246                           
  2247                           ;BLE_IIC.C: 4: LT8988_WriteReg(reg, first,second);
  2248  0586  0876               	movf	LT8988_ble_write_reg@first,w
  2249  0587  00F3               	movwf	?_LT8988_WriteReg
  2250  0588  0877               	movf	LT8988_ble_write_reg@second,w
  2251  0589  00F4               	movwf	?_LT8988_WriteReg+1
  2252  058A  0878               	movf	LT8988_ble_write_reg@reg,w
  2253  058B  2D42               	ljmp	_LT8988_WriteReg
  2254  058C                     __end_of_LT8988_ble_write_reg:	
  2255                           
  2256                           	psect	text942
  2257  055F                     __ptext942:	
  2258 ;; =============== function _LT8988_ble_write_reg ends ============
  2259                           
  2260                           
  2261 ;; *************** function _write_sync *****************
  2262 ;; Defined at:
  2263 ;;		line 480 in file "LT8988DRV.C"
  2264 ;; Parameters:    Size  Location     Type
  2265 ;;		None
  2266 ;; Auto vars:     Size  Location     Type
  2267 ;;		None
  2268 ;; Return value:  Size  Location     Type
  2269 ;;		None               void
  2270 ;; Registers used:
  2271 ;;		wreg, status,2, status,0, pclath, cstack
  2272 ;; Tracked objects:
  2273 ;;		On entry : 60/0
  2274 ;;		On exit  : 60/0
  2275 ;;		Unchanged: 0/0
  2276 ;; Data sizes:     COMMON   BANK0   BANK1
  2277 ;;      Params:         0       0       0
  2278 ;;      Locals:         0       0       0
  2279 ;;      Temps:          0       0       0
  2280 ;;      Totals:         0       0       0
  2281 ;;Total ram usage:        0 bytes
  2282 ;; Hardware stack levels used:    1
  2283 ;; Hardware stack levels required when called:    3
  2284 ;; This function calls:
  2285 ;;		_LT8988_WriteReg
  2286 ;; This function is called by:
  2287 ;;		_main
  2288 ;; This function uses a non-reentrant model
  2289 ;;
  2290  055F                     _write_sync:	
  2291                           
  2292                           ;LT8988DRV.C: 482: LT8988_WriteReg(36, 0xAA, 0x55 );
  2293                           
  2294                           ; Regs used in _write_sync: [wreg+status,2+status,0+pclath+cstack]
  2295  055F  30AA               	movlw	170
  2296  0560  00F3               	movwf	?_LT8988_WriteReg
  2297  0561  3055               	movlw	85
  2298  0562  00F4               	movwf	?_LT8988_WriteReg+1
  2299  0563  3024               	movlw	36
  2300  0564  2542               	fcall	_LT8988_WriteReg
  2301                           
  2302                           ;LT8988DRV.C: 483: LT8988_WriteReg(39, 0x33, 0x77 );
  2303  0565  3033               	movlw	51
  2304  0566  00F3               	movwf	?_LT8988_WriteReg
  2305  0567  3077               	movlw	119
  2306  0568  00F4               	movwf	?_LT8988_WriteReg+1
  2307  0569  3027               	movlw	39
  2308  056A  2D42               	ljmp	_LT8988_WriteReg
  2309  056B                     __end_of_write_sync:	
  2310                           
  2311                           	psect	text943
  2312  0203                     __ptext943:	
  2313 ;; =============== function _write_sync ends ============
  2314                           
  2315                           
  2316 ;; *************** function _LT8988_INIT *****************
  2317 ;; Defined at:
  2318 ;;		line 393 in file "LT8988DRV.C"
  2319 ;; Parameters:    Size  Location     Type
  2320 ;;		None
  2321 ;; Auto vars:     Size  Location     Type
  2322 ;;		None
  2323 ;; Return value:  Size  Location     Type
  2324 ;;		None               void
  2325 ;; Registers used:
  2326 ;;		wreg, status,2, status,0, pclath, cstack
  2327 ;; Tracked objects:
  2328 ;;		On entry : 17F/20
  2329 ;;		On exit  : 60/0
  2330 ;;		Unchanged: 0/0
  2331 ;; Data sizes:     COMMON   BANK0   BANK1
  2332 ;;      Params:         0       0       0
  2333 ;;      Locals:         0       0       0
  2334 ;;      Temps:          0       0       0
  2335 ;;      Totals:         0       0       0
  2336 ;;Total ram usage:        0 bytes
  2337 ;; Hardware stack levels used:    1
  2338 ;; Hardware stack levels required when called:    3
  2339 ;; This function calls:
  2340 ;;		_LT8988_WriteReg
  2341 ;;		_DelayMs
  2342 ;;		_LT8988_ReadReg
  2343 ;; This function is called by:
  2344 ;;		_main
  2345 ;; This function uses a non-reentrant model
  2346 ;;
  2347  0203                     _LT8988_INIT:	
  2348  0203                     l2278:	
  2349                           ; Regs used in _LT8988_INIT: [wreg+status,2+status,0+pclath+cstack]
  2350                           ;LT8988DRV.C: 396: reTry:
  2351                           
  2352  0203  3038               	movlw	56
  2353                           
  2354                           ;LT8988DRV.C: 399: LT8988_WriteReg(0x38, 0x00, 0x00);
  2355  0204  01F3               	clrf	?_LT8988_WriteReg
  2356  0205  01F4               	clrf	?_LT8988_WriteReg+1
  2357  0206  2542               	fcall	_LT8988_WriteReg
  2358                           
  2359                           ;LT8988DRV.C: 400: DelayMs(5);
  2360  0207  3005               	movlw	5
  2361  0208  24FF               	fcall	_DelayMs
  2362                           
  2363                           ;LT8988DRV.C: 401: LT8988_WriteReg(0x38, 0xBC, 0xDF);
  2364  0209  30BC               	movlw	188
  2365  020A  00F3               	movwf	?_LT8988_WriteReg
  2366  020B  30DF               	movlw	223
  2367  020C  00F4               	movwf	?_LT8988_WriteReg+1
  2368  020D  3038               	movlw	56
  2369  020E  2542               	fcall	_LT8988_WriteReg
  2370                           
  2371                           ;LT8988DRV.C: 402: DelayMs(5);
  2372  020F  3005               	movlw	5
  2373  0210  24FF               	fcall	_DelayMs
  2374                           
  2375                           ;LT8988DRV.C: 408: LT8988_WriteReg(8, 0x6C, 0x90);
  2376  0211  306C               	movlw	108
  2377  0212  00F3               	movwf	?_LT8988_WriteReg
  2378  0213  3090               	movlw	144
  2379  0214  00F4               	movwf	?_LT8988_WriteReg+1
  2380  0215  3008               	movlw	8
  2381  0216  2542               	fcall	_LT8988_WriteReg
  2382                           
  2383                           ;LT8988DRV.C: 409: LT8988_WriteReg(9, 0x78, 0x30);
  2384  0217  3078               	movlw	120
  2385  0218  00F3               	movwf	?_LT8988_WriteReg
  2386  0219  3030               	movlw	48
  2387  021A  00F4               	movwf	?_LT8988_WriteReg+1
  2388  021B  3009               	movlw	9
  2389  021C  2542               	fcall	_LT8988_WriteReg
  2390                           
  2391                           ;LT8988DRV.C: 411: LT8988_WriteReg(35, 0x03, 0x00);
  2392  021D  3003               	movlw	3
  2393  021E  00F3               	movwf	?_LT8988_WriteReg
  2394  021F  3023               	movlw	35
  2395  0220  01F4               	clrf	?_LT8988_WriteReg+1
  2396  0221  2542               	fcall	_LT8988_WriteReg
  2397                           
  2398                           ;LT8988DRV.C: 412: LT8988_WriteReg(40, 0x44, 0x02);
  2399  0222  3044               	movlw	68
  2400  0223  00F3               	movwf	?_LT8988_WriteReg
  2401  0224  3002               	movlw	2
  2402  0225  00F4               	movwf	?_LT8988_WriteReg+1
  2403  0226  3028               	movlw	40
  2404  0227  2542               	fcall	_LT8988_WriteReg
  2405                           
  2406                           ;LT8988DRV.C: 413: LT8988_WriteReg(41, 0xb0, 0x00);
  2407  0228  30B0               	movlw	176
  2408  0229  00F3               	movwf	?_LT8988_WriteReg
  2409  022A  3029               	movlw	41
  2410  022B  01F4               	clrf	?_LT8988_WriteReg+1
  2411  022C  2542               	fcall	_LT8988_WriteReg
  2412                           
  2413                           ;LT8988DRV.C: 414: LT8988_WriteReg(42, 0xFD, 0xB0);
  2414  022D  30FD               	movlw	253
  2415  022E  00F3               	movwf	?_LT8988_WriteReg
  2416  022F  30B0               	movlw	176
  2417  0230  00F4               	movwf	?_LT8988_WriteReg+1
  2418  0231  302A               	movlw	42
  2419  0232  2542               	fcall	_LT8988_WriteReg
  2420                           
  2421                           ;LT8988DRV.C: 416: LT8988_WriteReg(28, 0x18, 0x02);
  2422  0233  3018               	movlw	24
  2423  0234  00F3               	movwf	?_LT8988_WriteReg
  2424  0235  3002               	movlw	2
  2425  0236  00F4               	movwf	?_LT8988_WriteReg+1
  2426  0237  301C               	movlw	28
  2427  0238  2542               	fcall	_LT8988_WriteReg
  2428                           
  2429                           ;LT8988DRV.C: 418: LT8988_WriteReg(32, 0x48, 0x00);
  2430  0239  3048               	movlw	72
  2431  023A  00F3               	movwf	?_LT8988_WriteReg
  2432  023B  3020               	movlw	32
  2433  023C  01F4               	clrf	?_LT8988_WriteReg+1
  2434  023D  2542               	fcall	_LT8988_WriteReg
  2435  023E  302C               	movlw	44
  2436                           
  2437                           ;LT8988DRV.C: 421: LT8988_WriteReg(44, 0x01, 0x01);
  2438  023F  01F3               	clrf	?_LT8988_WriteReg
  2439  0240  0AF3               	incf	?_LT8988_WriteReg,f
  2440  0241  01F4               	clrf	?_LT8988_WriteReg+1
  2441  0242  0AF4               	incf	?_LT8988_WriteReg+1,f
  2442  0243  2542               	fcall	_LT8988_WriteReg
  2443                           
  2444                           ;LT8988DRV.C: 422: LT8988_WriteReg(45, 0x05, 0x52);
  2445  0244  3005               	movlw	5
  2446  0245  00F3               	movwf	?_LT8988_WriteReg
  2447  0246  3052               	movlw	82
  2448  0247  00F4               	movwf	?_LT8988_WriteReg+1
  2449  0248  302D               	movlw	45
  2450  0249  2542               	fcall	_LT8988_WriteReg
  2451                           
  2452                           ;LT8988DRV.C: 425: LT8988_WriteReg(52, 0x80, 0x80);
  2453  024A  3080               	movlw	128
  2454  024B  00F3               	movwf	?_LT8988_WriteReg
  2455  024C  00F4               	movwf	?_LT8988_WriteReg+1
  2456  024D  3034               	movlw	52
  2457  024E  2542               	fcall	_LT8988_WriteReg
  2458                           
  2459                           ;LT8988DRV.C: 428: LT8988_ReadReg(0);
  2460  024F  3000               	movlw	0
  2461  0250  24EA               	fcall	_LT8988_ReadReg
  2462                           
  2463                           ;LT8988DRV.C: 429: if(_RegH != 0x6F || _RegL != 0XE0)
  2464  0251  083C               	movf	__RegH,w
  2465  0252  3A6F               	xorlw	111
  2466  0253  1D03               	skipz
  2467  0254  2A03               	goto	l2278
  2468  0255  087B               	movf	__RegL,w
  2469  0256  3AE0               	xorlw	224
  2470  0257  1903               	skipnz
  2471  0258  0008               	return
  2472  0259  2A03               	goto	l2278
  2473  025A                     __end_of_LT8988_INIT:	
  2474                           
  2475                           	psect	text944
  2476  02D5                     __ptext944:	
  2477 ;; =============== function _LT8988_INIT ends ============
  2478                           
  2479                           
  2480 ;; *************** function _LT8988_ReadBUF *****************
  2481 ;; Defined at:
  2482 ;;		line 506 in file "LT8988DRV.C"
  2483 ;; Parameters:    Size  Location     Type
  2484 ;;  pBuf            1    wreg     PTR unsigned char 
  2485 ;;		 -> RXADVDATA(13), 
  2486 ;; Auto vars:     Size  Location     Type
  2487 ;;  pBuf            1    5[COMMON] PTR unsigned char 
  2488 ;;		 -> RXADVDATA(13), 
  2489 ;;  len             1    7[COMMON] unsigned char 
  2490 ;;  i               1    6[COMMON] unsigned char 
  2491 ;; Return value:  Size  Location     Type
  2492 ;;                  1    wreg      unsigned char 
  2493 ;; Registers used:
  2494 ;;		wreg, fsr0l, fsr0h, status,2, status,0, pclath, cstack
  2495 ;; Tracked objects:
  2496 ;;		On entry : 60/0
  2497 ;;		On exit  : 60/0
  2498 ;;		Unchanged: 0/0
  2499 ;; Data sizes:     COMMON   BANK0   BANK1
  2500 ;;      Params:         0       0       0
  2501 ;;      Locals:         3       0       0
  2502 ;;      Temps:          2       0       0
  2503 ;;      Totals:         5       0       0
  2504 ;;Total ram usage:        5 bytes
  2505 ;; Hardware stack levels used:    1
  2506 ;; Hardware stack levels required when called:    2
  2507 ;; This function calls:
  2508 ;;		_LT8988_start
  2509 ;;		_Send_Byte
  2510 ;;		_ack
  2511 ;;		_Read_Byte
  2512 ;;		_nack
  2513 ;;		_LT8988_stop
  2514 ;; This function is called by:
  2515 ;;		_ble_read_fifo
  2516 ;; This function uses a non-reentrant model
  2517 ;;
  2518  02D5                     _LT8988_ReadBUF:	
  2519                           
  2520                           ; Regs used in _LT8988_ReadBUF: [wreg-fsr0h+status,2+status,0+pclath+cstack]
  2521                           ;LT8988_ReadBUF@pBuf stored from wreg
  2522  02D5  00F5               	movwf	LT8988_ReadBUF@pBuf
  2523                           
  2524                           ;LT8988DRV.C: 509: unsigned char i;
  2525                           ;LT8988DRV.C: 513: LT8988_start();
  2526  02D6  2593               	fcall	_LT8988_start
  2527                           
  2528                           ;LT8988DRV.C: 514: Send_Byte(0x50);
  2529  02D7  3050               	movlw	80
  2530  02D8  2310               	fcall	_Send_Byte
  2531                           
  2532                           ;LT8988DRV.C: 515: ack();
  2533  02D9  2574               	fcall	_ack
  2534                           
  2535                           ;LT8988DRV.C: 516: Send_Byte(50 | 0X80);
  2536  02DA  30B2               	movlw	178
  2537  02DB  2310               	fcall	_Send_Byte
  2538                           
  2539                           ;LT8988DRV.C: 517: ack();
  2540  02DC  2574               	fcall	_ack
  2541                           
  2542                           ;LT8988DRV.C: 518: LT8988_start();
  2543  02DD  2593               	fcall	_LT8988_start
  2544                           
  2545                           ;LT8988DRV.C: 519: Send_Byte(0x51);
  2546  02DE  3051               	movlw	81
  2547  02DF  2310               	fcall	_Send_Byte
  2548                           
  2549                           ;LT8988DRV.C: 520: ack();
  2550  02E0  2574               	fcall	_ack
  2551                           
  2552                           ;LT8988DRV.C: 522: len = Read_Byte();
  2553  02E1  23AE               	fcall	_Read_Byte
  2554  02E2  00F7               	movwf	LT8988_ReadBUF@len
  2555                           
  2556                           ;LT8988DRV.C: 524: if(len > 15) {
  2557  02E3  3010               	movlw	16
  2558  02E4  0277               	subwf	LT8988_ReadBUF@len,w
  2559  02E5  1C03               	skipc
  2560  02E6  2AE9               	goto	l4733
  2561  02E7                     l4729:	
  2562                           
  2563                           ;LT8988DRV.C: 525: nack();
  2564  02E7  256B               	fcall	_nack
  2565                           
  2566                           ;LT8988DRV.C: 526: LT8988_stop();
  2567  02E8  2D8C               	ljmp	l4489
  2568  02E9                     l4733:	
  2569                           
  2570                           ;LT8988DRV.C: 528: }
  2571                           ;LT8988DRV.C: 529: ack();
  2572  02E9  2574               	fcall	_ack
  2573                           
  2574                           ;LT8988DRV.C: 531: pBuf[0] = len;
  2575  02EA  0875               	movf	LT8988_ReadBUF@pBuf,w
  2576  02EB  0084               	movwf	4
  2577  02EC  0877               	movf	LT8988_ReadBUF@len,w
  2578  02ED  1383               	bcf	3,7	;select IRP bank0
  2579  02EE  0080               	movwf	0
  2580                           
  2581                           ;LT8988DRV.C: 532: len = 13;
  2582  02EF  300D               	movlw	13
  2583  02F0  00F7               	movwf	LT8988_ReadBUF@len
  2584                           
  2585                           ;LT8988DRV.C: 533: for(i = 0; i < len; i++)
  2586  02F1  01F6               	clrf	LT8988_ReadBUF@i
  2587  02F2                     l4749:	
  2588  02F2  0877               	movf	LT8988_ReadBUF@len,w
  2589  02F3  0276               	subwf	LT8988_ReadBUF@i,w
  2590  02F4  1803               	btfsc	3,0
  2591  02F5  2AE7               	goto	l4729
  2592                           
  2593                           ;LT8988DRV.C: 534: {
  2594                           ;LT8988DRV.C: 535: pBuf[i + 1] = Read_Byte();
  2595  02F6  0876               	movf	LT8988_ReadBUF@i,w
  2596  02F7  0775               	addwf	LT8988_ReadBUF@pBuf,w
  2597  02F8  00F3               	movwf	??_LT8988_ReadBUF
  2598  02F9  3E01               	addlw	1
  2599  02FA  0084               	movwf	4
  2600  02FB  23AE               	fcall	_Read_Byte
  2601  02FC  1383               	bcf	3,7	;select IRP bank0
  2602  02FD  0080               	movwf	0
  2603                           
  2604                           ;LT8988DRV.C: 536: if(i < len - 1)
  2605  02FE  0877               	movf	LT8988_ReadBUF@len,w
  2606  02FF  3EFF               	addlw	255
  2607  0300  00F3               	movwf	??_LT8988_ReadBUF
  2608  0301  30FF               	movlw	255
  2609  0302  1803               	skipnc
  2610  0303  3000               	movlw	0
  2611  0304  00F4               	movwf	??_LT8988_ReadBUF+1
  2612  0305  3A80               	xorlw	128
  2613  0306  3C80               	sublw	128
  2614  0307  1D03               	skipz
  2615  0308  2B0B               	goto	u1975
  2616  0309  0873               	movf	??_LT8988_ReadBUF,w
  2617  030A  0276               	subwf	LT8988_ReadBUF@i,w
  2618  030B                     u1975:	
  2619  030B  1803               	skipnc
  2620  030C  2B0E               	goto	l4747
  2621                           
  2622                           ;LT8988DRV.C: 537: {
  2623                           ;LT8988DRV.C: 538: ack();
  2624  030D  2574               	fcall	_ack
  2625  030E                     l4747:	
  2626  030E  0AF6               	incf	LT8988_ReadBUF@i,f
  2627  030F  2AF2               	goto	l4749
  2628  0310                     __end_of_LT8988_ReadBUF:	
  2629                           
  2630                           	psect	text945
  2631  0542                     __ptext945:	
  2632 ;; =============== function _LT8988_ReadBUF ends ============
  2633                           
  2634                           
  2635 ;; *************** function _LT8988_WriteReg *****************
  2636 ;; Defined at:
  2637 ;;		line 344 in file "LT8988DRV.C"
  2638 ;; Parameters:    Size  Location     Type
  2639 ;;  reg             1    wreg     unsigned char 
  2640 ;;  H               1    3[COMMON] unsigned char 
  2641 ;;  L               1    4[COMMON] unsigned char 
  2642 ;; Auto vars:     Size  Location     Type
  2643 ;;  reg             1    5[COMMON] unsigned char 
  2644 ;; Return value:  Size  Location     Type
  2645 ;;		None               void
  2646 ;; Registers used:
  2647 ;;		wreg, status,2, status,0, pclath, cstack
  2648 ;; Tracked objects:
  2649 ;;		On entry : 40/0
  2650 ;;		On exit  : 60/0
  2651 ;;		Unchanged: 0/0
  2652 ;; Data sizes:     COMMON   BANK0   BANK1
  2653 ;;      Params:         2       0       0
  2654 ;;      Locals:         1       0       0
  2655 ;;      Temps:          0       0       0
  2656 ;;      Totals:         3       0       0
  2657 ;;Total ram usage:        3 bytes
  2658 ;; Hardware stack levels used:    1
  2659 ;; Hardware stack levels required when called:    2
  2660 ;; This function calls:
  2661 ;;		_LT8988_start
  2662 ;;		_Send_Byte
  2663 ;;		_ack
  2664 ;;		_LT8988_stop
  2665 ;; This function is called by:
  2666 ;;		_LT8988_ble_write_reg
  2667 ;;		_LT8988_INIT
  2668 ;;		_write_sync
  2669 ;; This function uses a non-reentrant model
  2670 ;;
  2671  0542                     _LT8988_WriteReg:	
  2672                           
  2673                           ; Regs used in _LT8988_WriteReg: [wreg+status,2+status,0+pclath+cstack]
  2674                           ;LT8988_WriteReg@reg stored from wreg
  2675  0542  00F5               	movwf	LT8988_WriteReg@reg
  2676                           
  2677                           ;LT8988DRV.C: 345: LT8988_start();
  2678  0543  2593               	fcall	_LT8988_start
  2679                           
  2680                           ;LT8988DRV.C: 346: Send_Byte(0x50);
  2681  0544  3050               	movlw	80
  2682  0545  2310               	fcall	_Send_Byte
  2683                           
  2684                           ;LT8988DRV.C: 347: ack();
  2685  0546  2574               	fcall	_ack
  2686                           
  2687                           ;LT8988DRV.C: 348: Send_Byte(reg);
  2688  0547  0875               	movf	LT8988_WriteReg@reg,w
  2689  0548  2310               	fcall	_Send_Byte
  2690                           
  2691                           ;LT8988DRV.C: 349: ack();
  2692  0549  2574               	fcall	_ack
  2693                           
  2694                           ;LT8988DRV.C: 350: Send_Byte(H);
  2695  054A  0873               	movf	LT8988_WriteReg@H,w
  2696  054B  2310               	fcall	_Send_Byte
  2697                           
  2698                           ;LT8988DRV.C: 351: ack();
  2699  054C  2574               	fcall	_ack
  2700                           
  2701                           ;LT8988DRV.C: 352: Send_Byte(L);
  2702  054D  0874               	movf	LT8988_WriteReg@L,w
  2703  054E  2310               	fcall	_Send_Byte
  2704                           
  2705                           ;LT8988DRV.C: 353: ack();
  2706  054F  2574               	fcall	_ack
  2707                           
  2708                           ;LT8988DRV.C: 354: LT8988_stop();
  2709  0550  2D8C               	ljmp	l4489
  2710  0551                     __end_of_LT8988_WriteReg:	
  2711                           
  2712                           	psect	text946
  2713  04EA                     __ptext946:	
  2714 ;; =============== function _LT8988_WriteReg ends ============
  2715                           
  2716                           
  2717 ;; *************** function _LT8988_ReadReg *****************
  2718 ;; Defined at:
  2719 ;;		line 358 in file "LT8988DRV.C"
  2720 ;; Parameters:    Size  Location     Type
  2721 ;;  reg             1    wreg     unsigned char 
  2722 ;; Auto vars:     Size  Location     Type
  2723 ;;  reg             1    3[COMMON] unsigned char 
  2724 ;; Return value:  Size  Location     Type
  2725 ;;		None               void
  2726 ;; Registers used:
  2727 ;;		wreg, status,2, status,0, pclath, cstack
  2728 ;; Tracked objects:
  2729 ;;		On entry : 60/0
  2730 ;;		On exit  : 60/0
  2731 ;;		Unchanged: 0/0
  2732 ;; Data sizes:     COMMON   BANK0   BANK1
  2733 ;;      Params:         0       0       0
  2734 ;;      Locals:         1       0       0
  2735 ;;      Temps:          0       0       0
  2736 ;;      Totals:         1       0       0
  2737 ;;Total ram usage:        1 bytes
  2738 ;; Hardware stack levels used:    1
  2739 ;; Hardware stack levels required when called:    2
  2740 ;; This function calls:
  2741 ;;		_LT8988_start
  2742 ;;		_Send_Byte
  2743 ;;		_ack
  2744 ;;		_Read_Byte
  2745 ;;		_nack
  2746 ;;		_LT8988_stop
  2747 ;; This function is called by:
  2748 ;;		_ble_chanel_scan
  2749 ;;		_LT8988_INIT
  2750 ;; This function uses a non-reentrant model
  2751 ;;
  2752  04EA                     _LT8988_ReadReg:	
  2753                           
  2754                           ; Regs used in _LT8988_ReadReg: [wreg+status,2+status,0+pclath+cstack]
  2755                           ;LT8988_ReadReg@reg stored from wreg
  2756  04EA  00F3               	movwf	LT8988_ReadReg@reg
  2757                           
  2758                           ;LT8988DRV.C: 359: LT8988_start();
  2759  04EB  2593               	fcall	_LT8988_start
  2760                           
  2761                           ;LT8988DRV.C: 360: Send_Byte(0x50);
  2762  04EC  3050               	movlw	80
  2763  04ED  2310               	fcall	_Send_Byte
  2764                           
  2765                           ;LT8988DRV.C: 361: ack();
  2766  04EE  2574               	fcall	_ack
  2767                           
  2768                           ;LT8988DRV.C: 362: Send_Byte(reg | 0X80);
  2769  04EF  0873               	movf	LT8988_ReadReg@reg,w
  2770  04F0  3880               	iorlw	128
  2771  04F1  2310               	fcall	_Send_Byte
  2772                           
  2773                           ;LT8988DRV.C: 363: ack();
  2774  04F2  2574               	fcall	_ack
  2775                           
  2776                           ;LT8988DRV.C: 364: LT8988_start();
  2777  04F3  2593               	fcall	_LT8988_start
  2778                           
  2779                           ;LT8988DRV.C: 365: Send_Byte(0x51);
  2780  04F4  3051               	movlw	81
  2781  04F5  2310               	fcall	_Send_Byte
  2782                           
  2783                           ;LT8988DRV.C: 366: ack();
  2784  04F6  2574               	fcall	_ack
  2785                           
  2786                           ;LT8988DRV.C: 368: _RegH = Read_Byte();
  2787  04F7  23AE               	fcall	_Read_Byte
  2788  04F8  1283               	bcf	3,5	;RP0=0, select bank0
  2789  04F9  00BC               	movwf	__RegH
  2790                           
  2791                           ;LT8988DRV.C: 369: ack();
  2792  04FA  2574               	fcall	_ack
  2793                           
  2794                           ;LT8988DRV.C: 370: _RegL = Read_Byte();
  2795  04FB  23AE               	fcall	_Read_Byte
  2796  04FC  00FB               	movwf	__RegL
  2797                           
  2798                           ;LT8988DRV.C: 371: nack();
  2799  04FD  256B               	fcall	_nack
  2800                           
  2801                           ;LT8988DRV.C: 372: LT8988_stop();
  2802  04FE  2D8C               	ljmp	l4489
  2803  04FF                     __end_of_LT8988_ReadReg:	
  2804                           
  2805                           	psect	text947
  2806  000B                     __ptext947:	
  2807 ;; =============== function _LT8988_ReadReg ends ============
  2808                           
  2809                           
  2810 ;; *************** function _get_crc *****************
  2811 ;; Defined at:
  2812 ;;		line 35 in file "8988_ble.c"
  2813 ;; Parameters:    Size  Location     Type
  2814 ;;  user_data_bu    1    wreg     PTR unsigned char 
  2815 ;;		 -> PDUDATA(26), 
  2816 ;;  lenth           1    6[COMMON] unsigned char 
  2817 ;; Auto vars:     Size  Location     Type
  2818 ;;  user_data_bu    1    9[BANK0 ] PTR unsigned char 
  2819 ;;		 -> PDUDATA(26), 
  2820 ;;  e               1   10[BANK0 ] unsigned char 
  2821 ;;  i               1    8[BANK0 ] unsigned char 
  2822 ;;  c2              1    7[BANK0 ] unsigned char 
  2823 ;;  c1              1    6[BANK0 ] unsigned char 
  2824 ;;  c0              1    5[BANK0 ] unsigned char 
  2825 ;; Return value:  Size  Location     Type
  2826 ;;		None               void
  2827 ;; Registers used:
  2828 ;;		wreg, fsr0l, fsr0h, status,2, status,0, pclath, cstack
  2829 ;; Tracked objects:
  2830 ;;		On entry : 60/0
  2831 ;;		On exit  : 160/0
  2832 ;;		Unchanged: FFE00/0
  2833 ;; Data sizes:     COMMON   BANK0   BANK1
  2834 ;;      Params:         1       0       0
  2835 ;;      Locals:         0       6       0
  2836 ;;      Temps:          0       5       0
  2837 ;;      Totals:         1      11       0
  2838 ;;Total ram usage:       12 bytes
  2839 ;; Hardware stack levels used:    1
  2840 ;; Hardware stack levels required when called:    2
  2841 ;; This function calls:
  2842 ;;		_roll_data
  2843 ;; This function is called by:
  2844 ;;		_LT8988_ble_tx_start
  2845 ;; This function uses a non-reentrant model
  2846 ;;
  2847  000B                     _get_crc:	
  2848                           
  2849                           ; Regs used in _get_crc: [wreg-fsr0h+status,2+status,0+pclath+cstack]
  2850                           ;get_crc@user_data_buf stored from wreg
  2851  000B  00D6               	movwf	get_crc@user_data_buf
  2852                           
  2853                           ;8988_ble.c: 36: unsigned char c0, c1, c2;
  2854                           ;8988_ble.c: 37: unsigned char i, e;
  2855                           ;8988_ble.c: 40: c0 = 85;
  2856  000C  3055               	movlw	85
  2857  000D  00D2               	movwf	get_crc@c0
  2858                           
  2859                           ;8988_ble.c: 41: c1 = 85;
  2860  000E  00D3               	movwf	get_crc@c1
  2861                           
  2862                           ;8988_ble.c: 42: c2 = 85;
  2863  000F  00D4               	movwf	get_crc@c2
  2864                           
  2865                           ;8988_ble.c: 45: for(i = 0; i < lenth - 3; i++)
  2866  0010  01D5               	clrf	get_crc@i
  2867  0011                     l4665:	
  2868  0011  0876               	movf	get_crc@lenth,w
  2869  0012  3EFD               	addlw	253
  2870  0013  00CD               	movwf	??_get_crc
  2871  0014  30FF               	movlw	255
  2872  0015  1803               	skipnc
  2873  0016  3000               	movlw	0
  2874  0017  00CE               	movwf	??_get_crc+1
  2875  0018  3A80               	xorlw	128
  2876  0019  3C80               	sublw	128
  2877  001A  1D03               	skipz
  2878  001B  281E               	goto	u1955
  2879  001C  084D               	movf	??_get_crc,w
  2880  001D  0255               	subwf	get_crc@i,w
  2881  001E                     u1955:	
  2882  001E  1803               	btfsc	3,0
  2883  001F  2889               	goto	l4667
  2884                           
  2885                           ;8988_ble.c: 46: {
  2886                           ;8988_ble.c: 47: e = roll_data(user_data_buf[i])^c2;
  2887  0020  1283               	bcf	3,5	;RP0=0, select bank0
  2888  0021  1303               	bcf	3,6	;RP1=0, select bank0
  2889  0022  0855               	movf	get_crc@i,w
  2890  0023  0756               	addwf	get_crc@user_data_buf,w
  2891  0024  00CD               	movwf	??_get_crc
  2892  0025  0084               	movwf	4
  2893  0026  1383               	bcf	3,7	;select IRP bank0
  2894  0027  0800               	movf	0,w
  2895  0028  2458               	fcall	_roll_data
  2896  0029  0654               	xorwf	get_crc@c2,w
  2897  002A  00D7               	movwf	get_crc@e
  2898                           
  2899                           ;8988_ble.c: 49: c2 = ((e >> 6)) ^ ((e >> 7))^c1;
  2900  002B  00CD               	movwf	??_get_crc
  2901  002C  3007               	movlw	7
  2902  002D                     u1895:	
  2903  002D  1003               	clrc
  2904  002E  0CCD               	rrf	??_get_crc,f
  2905  002F  3EFF               	addlw	-1
  2906  0030  1D03               	skipz
  2907  0031  282D               	goto	u1895
  2908  0032  0857               	movf	get_crc@e,w
  2909  0033  00CE               	movwf	??_get_crc+1
  2910  0034  3006               	movlw	6
  2911  0035                     u1905:	
  2912  0035  1003               	clrc
  2913  0036  0CCE               	rrf	??_get_crc+1,f
  2914  0037  3EFF               	addlw	-1
  2915  0038  1D03               	skipz
  2916  0039  2835               	goto	u1905
  2917  003A  084E               	movf	??_get_crc+1,w
  2918  003B  064D               	xorwf	??_get_crc,w
  2919  003C  0653               	xorwf	get_crc@c1,w
  2920  003D  00D4               	movwf	get_crc@c2
  2921                           
  2922                           ;8988_ble.c: 50: c1 = ((e << 1) & 255) ^ ((e << 2) & 255) ^ ((e >> 2)) ^ ((e >> 4)) ^ ((
      +                          e >> 5)) ^ ((e >> 7))^c0;
  2923  003E  0857               	movf	get_crc@e,w
  2924  003F  00CD               	movwf	??_get_crc
  2925  0040  3007               	movlw	7
  2926  0041                     u1915:	
  2927  0041  1003               	clrc
  2928  0042  0CCD               	rrf	??_get_crc,f
  2929  0043  3EFF               	addlw	-1
  2930  0044  1D03               	skipz
  2931  0045  2841               	goto	u1915
  2932  0046  0857               	movf	get_crc@e,w
  2933  0047  00CE               	movwf	??_get_crc+1
  2934  0048  3005               	movlw	5
  2935  0049                     u1925:	
  2936  0049  1003               	clrc
  2937  004A  0CCE               	rrf	??_get_crc+1,f
  2938  004B  3EFF               	addlw	-1
  2939  004C  1D03               	skipz
  2940  004D  2849               	goto	u1925
  2941  004E  0857               	movf	get_crc@e,w
  2942  004F  00CF               	movwf	??_get_crc+2
  2943  0050  3004               	movlw	4
  2944  0051                     u1935:	
  2945  0051  1003               	clrc
  2946  0052  0CCF               	rrf	??_get_crc+2,f
  2947  0053  3EFF               	addlw	-1
  2948  0054  1D03               	skipz
  2949  0055  2851               	goto	u1935
  2950  0056  0857               	movf	get_crc@e,w
  2951  0057  00D0               	movwf	??_get_crc+3
  2952  0058  1003               	clrc
  2953  0059  0CD0               	rrf	??_get_crc+3,f
  2954  005A  1003               	clrc
  2955  005B  0CD0               	rrf	??_get_crc+3,f
  2956  005C  0857               	movf	get_crc@e,w
  2957  005D  00D1               	movwf	??_get_crc+4
  2958  005E  1003               	clrc
  2959  005F  0DD1               	rlf	??_get_crc+4,f
  2960  0060  1003               	clrc
  2961  0061  0DD1               	rlf	??_get_crc+4,f
  2962  0062  1003               	clrc
  2963  0063  0D57               	rlf	get_crc@e,w
  2964  0064  0651               	xorwf	??_get_crc+4,w
  2965  0065  0650               	xorwf	??_get_crc+3,w
  2966  0066  064F               	xorwf	??_get_crc+2,w
  2967  0067  064E               	xorwf	??_get_crc+1,w
  2968  0068  064D               	xorwf	??_get_crc,w
  2969  0069  0652               	xorwf	get_crc@c0,w
  2970  006A  00D3               	movwf	get_crc@c1
  2971                           
  2972                           ;8988_ble.c: 51: c0 = e ^ ((e << 1) & 255) ^ ((e << 3) & 255) ^ ((e << 4) & 255) ^ ((e <
      +                          < 6) & 255);
  2973  006B  0857               	movf	get_crc@e,w
  2974  006C  00CD               	movwf	??_get_crc
  2975  006D  3006               	movlw	6
  2976  006E                     u1945:	
  2977  006E  1003               	clrc
  2978  006F  0DCD               	rlf	??_get_crc,f
  2979  0070  3EFF               	addlw	-1
  2980  0071  1D03               	skipz
  2981  0072  286E               	goto	u1945
  2982  0073  0857               	movf	get_crc@e,w
  2983  0074  00CE               	movwf	??_get_crc+1
  2984  0075  0E4E               	swapf	??_get_crc+1,w
  2985  0076  39F0               	andlw	240
  2986  0077  00CE               	movwf	??_get_crc+1
  2987  0078  0857               	movf	get_crc@e,w
  2988  0079  00CF               	movwf	??_get_crc+2
  2989  007A  1003               	clrc
  2990  007B  0DCF               	rlf	??_get_crc+2,f
  2991  007C  1003               	clrc
  2992  007D  0DCF               	rlf	??_get_crc+2,f
  2993  007E  1003               	clrc
  2994  007F  0DCF               	rlf	??_get_crc+2,f
  2995  0080  1003               	clrc
  2996  0081  0D57               	rlf	get_crc@e,w
  2997  0082  064F               	xorwf	??_get_crc+2,w
  2998  0083  064E               	xorwf	??_get_crc+1,w
  2999  0084  064D               	xorwf	??_get_crc,w
  3000  0085  0657               	xorwf	get_crc@e,w
  3001  0086  00D2               	movwf	get_crc@c0
  3002  0087  0AD5               	incf	get_crc@i,f
  3003  0088  2811               	goto	l4665
  3004  0089                     l4667:	
  3005                           
  3006                           ;8988_ble.c: 52: }
  3007                           ;8988_ble.c: 59: user_data_buf[lenth - 1] = roll_data(c0);
  3008  0089  0876               	movf	get_crc@lenth,w
  3009  008A  1283               	bcf	3,5	;RP0=0, select bank0
  3010  008B  1303               	bcf	3,6	;RP1=0, select bank0
  3011  008C  0756               	addwf	get_crc@user_data_buf,w
  3012  008D  00CD               	movwf	??_get_crc
  3013  008E  3EFF               	addlw	-1
  3014  008F  0084               	movwf	4
  3015  0090  0852               	movf	get_crc@c0,w
  3016  0091  2458               	fcall	_roll_data
  3017  0092  1383               	bcf	3,7	;select IRP bank0
  3018  0093  0080               	movwf	0
  3019                           
  3020                           ;8988_ble.c: 60: user_data_buf[lenth - 2] = roll_data(c1);
  3021  0094  0876               	movf	get_crc@lenth,w
  3022  0095  0756               	addwf	get_crc@user_data_buf,w
  3023  0096  00CD               	movwf	??_get_crc
  3024  0097  3EFE               	addlw	-2
  3025  0098  0084               	movwf	4
  3026  0099  0853               	movf	get_crc@c1,w
  3027  009A  2458               	fcall	_roll_data
  3028  009B  0080               	movwf	0
  3029                           
  3030                           ;8988_ble.c: 61: user_data_buf[lenth - 3] = roll_data(c2);
  3031  009C  0876               	movf	get_crc@lenth,w
  3032  009D  0756               	addwf	get_crc@user_data_buf,w
  3033  009E  00CD               	movwf	??_get_crc
  3034  009F  3EFD               	addlw	-3
  3035  00A0  0084               	movwf	4
  3036  00A1  0854               	movf	get_crc@c2,w
  3037  00A2  2458               	fcall	_roll_data
  3038  00A3  0080               	movwf	0
  3039  00A4  0008               	return
  3040  00A5                     __end_of_get_crc:	
  3041                           
  3042                           	psect	text948
  3043  056B                     __ptext948:	
  3044 ;; =============== function _get_crc ends ============
  3045                           
  3046                           
  3047 ;; *************** function _nack *****************
  3048 ;; Defined at:
  3049 ;;		line 331 in file "LT8988DRV.C"
  3050 ;; Parameters:    Size  Location     Type
  3051 ;;		None
  3052 ;; Auto vars:     Size  Location     Type
  3053 ;;		None
  3054 ;; Return value:  Size  Location     Type
  3055 ;;		None               void
  3056 ;; Registers used:
  3057 ;;		None
  3058 ;; Tracked objects:
  3059 ;;		On entry : 0/20
  3060 ;;		On exit  : 60/0
  3061 ;;		Unchanged: 0/0
  3062 ;; Data sizes:     COMMON   BANK0   BANK1
  3063 ;;      Params:         0       0       0
  3064 ;;      Locals:         0       0       0
  3065 ;;      Temps:          0       0       0
  3066 ;;      Totals:         0       0       0
  3067 ;;Total ram usage:        0 bytes
  3068 ;; Hardware stack levels used:    1
  3069 ;; Hardware stack levels required when called:    1
  3070 ;; This function calls:
  3071 ;;		Nothing
  3072 ;; This function is called by:
  3073 ;;		_LT8988_ReadReg
  3074 ;;		_LT8988_ReadBUF
  3075 ;; This function uses a non-reentrant model
  3076 ;;
  3077  056B                     _nack:	
  3078                           
  3079                           ;LT8988DRV.C: 332: RC1=1;
  3080                           
  3081                           ; Regs used in _nack: []
  3082  056B  1283               	bcf	3,5	;RP0=0, select bank0
  3083  056C  1303               	bcf	3,6	;RP1=0, select bank0
  3084  056D  1487               	bsf	7,1
  3085                           
  3086                           ;LT8988DRV.C: 334: RC0=1;
  3087  056E  1407               	bsf	7,0
  3088                           
  3089                           ;LT8988DRV.C: 335: _nop();
  3090  056F  0000               	nop
  3091                           
  3092                           ;LT8988DRV.C: 336: RC0=0;
  3093  0570  1283               	bcf	3,5	;RP0=0, select bank0
  3094  0571  1303               	bcf	3,6	;RP1=0, select bank0
  3095  0572  1007               	bcf	7,0
  3096  0573  0008               	return
  3097  0574                     __end_of_nack:	
  3098                           
  3099                           	psect	text949
  3100  0574                     __ptext949:	
  3101 ;; =============== function _nack ends ============
  3102                           
  3103                           
  3104 ;; *************** function _ack *****************
  3105 ;; Defined at:
  3106 ;;		line 323 in file "LT8988DRV.C"
  3107 ;; Parameters:    Size  Location     Type
  3108 ;;		None
  3109 ;; Auto vars:     Size  Location     Type
  3110 ;;		None
  3111 ;; Return value:  Size  Location     Type
  3112 ;;		None               void
  3113 ;; Registers used:
  3114 ;;		None
  3115 ;; Tracked objects:
  3116 ;;		On entry : 0/0
  3117 ;;		On exit  : 60/0
  3118 ;;		Unchanged: 0/0
  3119 ;; Data sizes:     COMMON   BANK0   BANK1
  3120 ;;      Params:         0       0       0
  3121 ;;      Locals:         0       0       0
  3122 ;;      Temps:          0       0       0
  3123 ;;      Totals:         0       0       0
  3124 ;;Total ram usage:        0 bytes
  3125 ;; Hardware stack levels used:    1
  3126 ;; Hardware stack levels required when called:    1
  3127 ;; This function calls:
  3128 ;;		Nothing
  3129 ;; This function is called by:
  3130 ;;		_LT8988_WriteReg
  3131 ;;		_LT8988_ReadReg
  3132 ;;		_LT8988_ReadBUF
  3133 ;; This function uses a non-reentrant model
  3134 ;;
  3135  0574                     _ack:	
  3136                           
  3137                           ;LT8988DRV.C: 324: RC1=0;
  3138                           
  3139                           ; Regs used in _ack: []
  3140  0574  1283               	bcf	3,5	;RP0=0, select bank0
  3141  0575  1303               	bcf	3,6	;RP1=0, select bank0
  3142  0576  1087               	bcf	7,1
  3143                           
  3144                           ;LT8988DRV.C: 326: RC0=1;
  3145  0577  1407               	bsf	7,0
  3146                           
  3147                           ;LT8988DRV.C: 327: _nop();
  3148  0578  0000               	nop
  3149                           
  3150                           ;LT8988DRV.C: 328: RC0=0;
  3151  0579  1283               	bcf	3,5	;RP0=0, select bank0
  3152  057A  1303               	bcf	3,6	;RP1=0, select bank0
  3153  057B  1007               	bcf	7,0
  3154  057C  0008               	return
  3155  057D                     __end_of_ack:	
  3156                           
  3157                           	psect	text950
  3158  00A5                     __ptext950:	
  3159 ;; =============== function _ack ends ============
  3160                           
  3161                           
  3162 ;; *************** function _LT8988_ble_to_localdata *****************
  3163 ;; Defined at:
  3164 ;;		line 124 in file "8988_ble.c"
  3165 ;; Parameters:    Size  Location     Type
  3166 ;;  chanel          1    wreg     unsigned char 
  3167 ;;  ADVDATA         1    2[COMMON] PTR unsigned char 
  3168 ;;		 -> RXADVDATA(13), 
  3169 ;;  len             1    3[COMMON] unsigned char 
  3170 ;;  adv_offset      1    4[COMMON] unsigned char 
  3171 ;; Auto vars:     Size  Location     Type
  3172 ;;  chanel          1    0[BANK0 ] unsigned char 
  3173 ;;  i               1    1[BANK0 ] unsigned char 
  3174 ;; Return value:  Size  Location     Type
  3175 ;;		None               void
  3176 ;; Registers used:
  3177 ;;		wreg, fsr0l, fsr0h, status,2, status,0, pclath
  3178 ;; Tracked objects:
  3179 ;;		On entry : 60/0
  3180 ;;		On exit  : 60/0
  3181 ;;		Unchanged: FFE9F/0
  3182 ;; Data sizes:     COMMON   BANK0   BANK1
  3183 ;;      Params:         3       0       0
  3184 ;;      Locals:         0       2       0
  3185 ;;      Temps:          5       0       0
  3186 ;;      Totals:         8       2       0
  3187 ;;Total ram usage:       10 bytes
  3188 ;; Hardware stack levels used:    2
  3189 ;; Hardware stack levels required when called:    1
  3190 ;; This function calls:
  3191 ;;		Nothing
  3192 ;; This function is called by:
  3193 ;;		_LT8988_read_ble_fifo
  3194 ;; This function uses a non-reentrant model
  3195 ;;
  3196  00A5                     _LT8988_ble_to_localdata:	
  3197                           
  3198                           ; Regs used in _LT8988_ble_to_localdata: [wreg-fsr0h+status,2+status,0+pclath]
  3199                           ;LT8988_ble_to_localdata@chanel stored from wreg
  3200  00A5  00CD               	movwf	LT8988_ble_to_localdata@chanel
  3201                           
  3202                           ;8988_ble.c: 126: unsigned char i;
  3203                           ;8988_ble.c: 128: if(chanel == 37)
  3204  00A6  3A25               	xorlw	37
  3205  00A7  1D03               	skipz
  3206  00A8  28BE               	goto	l4605
  3207                           
  3208                           ;8988_ble.c: 129: {
  3209                           ;8988_ble.c: 130: for(i = 0; i < len; i++)
  3210  00A9  01CE               	clrf	LT8988_ble_to_localdata@i
  3211  00AA                     l4595:	
  3212  00AA  0873               	movf	LT8988_ble_to_localdata@len,w
  3213  00AB  024E               	subwf	LT8988_ble_to_localdata@i,w
  3214  00AC  1803               	btfsc	3,0
  3215  00AD  28B3               	goto	l4597
  3216                           
  3217                           ;8988_ble.c: 131: {
  3218                           ;8988_ble.c: 132: ADVDATA[i] = ADVDATA[i] ^ WHITE_INDEX37[i + adv_offset];
  3219  00AE  3001               	movlw	(_WHITE_INDEX37-__stringbase)& (0+255)
  3220  00AF  211B               	fcall	PL6	;call to abstracted procedure
  3221  00B0  2126               	fcall	stringdir
  3222  00B1  2100               	fcall	PL2	;call to abstracted procedure
  3223  00B2  28AA               	goto	l4595
  3224  00B3                     l4597:	
  3225                           
  3226                           ;8988_ble.c: 134: }
  3227                           ;8988_ble.c: 136: for(i = 3; i < len; i++)
  3228  00B3  3003               	movlw	3
  3229  00B4  00CE               	movwf	LT8988_ble_to_localdata@i
  3230  00B5                     l4603:	
  3231  00B5  0873               	movf	LT8988_ble_to_localdata@len,w
  3232  00B6  024E               	subwf	LT8988_ble_to_localdata@i,w
  3233  00B7  1803               	btfsc	3,0
  3234  00B8  28F2               	goto	l4639
  3235                           
  3236                           ;8988_ble.c: 137: ADVDATA[i - 3] = ADVDATA[i];
  3237  00B9  084E               	movf	LT8988_ble_to_localdata@i,w
  3238  00BA  2111               	fcall	PL4	;call to abstracted procedure
  3239  00BB  3EFD               	addlw	-3
  3240  00BC  2121               	fcall	PL10	;call to abstracted procedure
  3241  00BD  28B5               	goto	l4603
  3242  00BE                     l4605:	
  3243                           
  3244                           ;8988_ble.c: 141: else if(chanel == 38)
  3245  00BE  084D               	movf	LT8988_ble_to_localdata@chanel,w
  3246  00BF  3A26               	xorlw	38
  3247  00C0  1D03               	skipz
  3248  00C1  28D7               	goto	l4623
  3249                           
  3250                           ;8988_ble.c: 142: {
  3251                           ;8988_ble.c: 143: for(i = 0; i < len; i++)
  3252  00C2  01CE               	clrf	LT8988_ble_to_localdata@i
  3253  00C3                     l4613:	
  3254  00C3  0873               	movf	LT8988_ble_to_localdata@len,w
  3255  00C4  024E               	subwf	LT8988_ble_to_localdata@i,w
  3256  00C5  1803               	btfsc	3,0
  3257  00C6  28CC               	goto	l4615
  3258                           
  3259                           ;8988_ble.c: 144: {
  3260                           ;8988_ble.c: 145: ADVDATA[i] = ADVDATA[i] ^ WHITE_INDEX38[i + adv_offset];
  3261  00C7  3028               	movlw	(_WHITE_INDEX38-__stringbase)& (0+255)
  3262  00C8  211B               	fcall	PL6	;call to abstracted procedure
  3263  00C9  2126               	fcall	stringdir
  3264  00CA  2100               	fcall	PL2	;call to abstracted procedure
  3265  00CB  28C3               	goto	l4613
  3266  00CC                     l4615:	
  3267                           
  3268                           ;8988_ble.c: 146: }
  3269                           ;8988_ble.c: 148: for(i = 2; i < len; i++)
  3270  00CC  3002               	movlw	2
  3271  00CD  00CE               	movwf	LT8988_ble_to_localdata@i
  3272  00CE                     l4621:	
  3273  00CE  0873               	movf	LT8988_ble_to_localdata@len,w
  3274  00CF  024E               	subwf	LT8988_ble_to_localdata@i,w
  3275  00D0  1803               	btfsc	3,0
  3276  00D1  28F2               	goto	l4639
  3277                           
  3278                           ;8988_ble.c: 149: ADVDATA[i - 2] = ADVDATA[i];
  3279  00D2  084E               	movf	LT8988_ble_to_localdata@i,w
  3280  00D3  2111               	fcall	PL4	;call to abstracted procedure
  3281  00D4  3EFE               	addlw	-2
  3282  00D5  2121               	fcall	PL10	;call to abstracted procedure
  3283  00D6  28CE               	goto	l4621
  3284  00D7                     l4623:	
  3285                           
  3286                           ;8988_ble.c: 152: else if(chanel == 39)
  3287  00D7  084D               	movf	LT8988_ble_to_localdata@chanel,w
  3288  00D8  3A27               	xorlw	39
  3289  00D9  1D03               	skipz
  3290  00DA  28F2               	goto	l4639
  3291                           
  3292                           ;8988_ble.c: 153: {
  3293                           ;8988_ble.c: 154: for(i = 0; i < len; i++)
  3294  00DB  01CE               	clrf	LT8988_ble_to_localdata@i
  3295  00DC                     l4631:	
  3296  00DC  0873               	movf	LT8988_ble_to_localdata@len,w
  3297  00DD  024E               	subwf	LT8988_ble_to_localdata@i,w
  3298  00DE  1803               	btfsc	3,0
  3299  00DF  28E5               	goto	l2387
  3300                           
  3301                           ;8988_ble.c: 155: {
  3302                           ;8988_ble.c: 156: ADVDATA[i] = ADVDATA[i] ^ WHITE_INDEX39[i + adv_offset];
  3303  00E0  304F               	movlw	(_WHITE_INDEX39-__stringbase)& (0+255)
  3304  00E1  211B               	fcall	PL6	;call to abstracted procedure
  3305  00E2  2126               	fcall	stringdir
  3306  00E3  2100               	fcall	PL2	;call to abstracted procedure
  3307  00E4  28DC               	goto	l4631
  3308  00E5                     l2387:	
  3309                           
  3310                           ;8988_ble.c: 157: }
  3311                           ;8988_ble.c: 159: for(i = 1; i < len; i++)
  3312  00E5  01CE               	clrf	LT8988_ble_to_localdata@i
  3313  00E6                     l4635:	
  3314  00E6  0ACE               	incf	LT8988_ble_to_localdata@i,f
  3315  00E7  0873               	movf	LT8988_ble_to_localdata@len,w
  3316  00E8  024E               	subwf	LT8988_ble_to_localdata@i,w
  3317  00E9  1803               	btfsc	3,0
  3318  00EA  28F2               	goto	l4639
  3319                           
  3320                           ;8988_ble.c: 160: ADVDATA[i - 1] = ADVDATA[i];
  3321  00EB  084E               	movf	LT8988_ble_to_localdata@i,w
  3322  00EC  2111               	fcall	PL4	;call to abstracted procedure
  3323  00ED  3EFF               	addlw	-1
  3324  00EE  0084               	movwf	4
  3325  00EF  0876               	movf	??_LT8988_ble_to_localdata+1,w
  3326  00F0  0080               	movwf	0
  3327  00F1  28E6               	goto	l4635
  3328  00F2                     l4639:	
  3329                           
  3330                           ;8988_ble.c: 161: }
  3331                           ;8988_ble.c: 164: for(i = 10; i < len; i++)
  3332  00F2  300A               	movlw	10
  3333  00F3  00CE               	movwf	LT8988_ble_to_localdata@i
  3334  00F4                     l4645:	
  3335  00F4  0873               	movf	LT8988_ble_to_localdata@len,w
  3336  00F5  024E               	subwf	LT8988_ble_to_localdata@i,w
  3337  00F6  1803               	btfsc	3,0
  3338  00F7  0008               	return
  3339                           
  3340                           ;8988_ble.c: 165: ADVDATA[i] = 0;
  3341  00F8  084E               	movf	LT8988_ble_to_localdata@i,w
  3342  00F9  0772               	addwf	LT8988_ble_to_localdata@ADVDATA,w
  3343  00FA  00F5               	movwf	??_LT8988_ble_to_localdata
  3344  00FB  0084               	movwf	4
  3345  00FC  1383               	bcf	3,7	;select IRP bank0
  3346  00FD  0180               	clrf	0
  3347  00FE  0ACE               	incf	LT8988_ble_to_localdata@i,f
  3348  00FF  28F4               	goto	l4645
  3349  0100                     __end_of_LT8988_ble_to_localdata:	
  3350  0100                     PL2:	
  3351  0100  00F6               	movwf	??_LT8988_ble_to_localdata+1
  3352  0101  084E               	movf	LT8988_ble_to_localdata@i,w
  3353  0102  0772               	addwf	LT8988_ble_to_localdata@ADVDATA,w
  3354  0103  00F7               	movwf	??_LT8988_ble_to_localdata+2
  3355  0104  0084               	movwf	4
  3356  0105  1383               	bcf	3,7	;select IRP bank0
  3357  0106  0800               	movf	0,w
  3358  0107  0676               	xorwf	??_LT8988_ble_to_localdata+1,w
  3359  0108  00F8               	movwf	??_LT8988_ble_to_localdata+3
  3360  0109  084E               	movf	LT8988_ble_to_localdata@i,w
  3361  010A  0772               	addwf	LT8988_ble_to_localdata@ADVDATA,w
  3362  010B  00F9               	movwf	??_LT8988_ble_to_localdata+4
  3363  010C  0084               	movwf	4
  3364  010D  0878               	movf	??_LT8988_ble_to_localdata+3,w
  3365  010E  0080               	movwf	0
  3366  010F  0ACE               	incf	LT8988_ble_to_localdata@i,f
  3367  0110  0008               	return
  3368  0111                     PL4:	
  3369  0111  0772               	addwf	LT8988_ble_to_localdata@ADVDATA,w
  3370  0112  00F5               	movwf	??_LT8988_ble_to_localdata
  3371  0113  0084               	movwf	4
  3372  0114  1383               	bcf	3,7	;select IRP bank0
  3373  0115  0800               	movf	0,w
  3374  0116  00F6               	movwf	??_LT8988_ble_to_localdata+1
  3375  0117  084E               	movf	LT8988_ble_to_localdata@i,w
  3376  0118  0772               	addwf	LT8988_ble_to_localdata@ADVDATA,w
  3377  0119  00F7               	movwf	??_LT8988_ble_to_localdata+2
  3378  011A  0008               	return
  3379  011B                     PL6:	
  3380  011B  0774               	addwf	LT8988_ble_to_localdata@adv_offset,w
  3381  011C  00F5               	movwf	??_LT8988_ble_to_localdata
  3382  011D  084E               	movf	LT8988_ble_to_localdata@i,w
  3383  011E  0775               	addwf	??_LT8988_ble_to_localdata,w
  3384  011F  0084               	movwf	4
  3385  0120  0008               	return
  3386  0121                     PL10:	
  3387  0121  0084               	movwf	4
  3388  0122  0876               	movf	??_LT8988_ble_to_localdata+1,w
  3389  0123  0080               	movwf	0
  3390  0124  0ACE               	incf	LT8988_ble_to_localdata@i,f
  3391  0125  0008               	return
  3392                           
  3393                           	psect	text951
  3394  025A                     __ptext951:	
  3395 ;; =============== function _LT8988_ble_to_localdata ends ============
  3396                           
  3397                           
  3398 ;; *************** function _LT8988_pdudata_white *****************
  3399 ;; Defined at:
  3400 ;;		line 72 in file "8988_ble.c"
  3401 ;; Parameters:    Size  Location     Type
  3402 ;;  chanel          1    wreg     unsigned char 
  3403 ;;  PDUDATA         1    2[COMMON] PTR unsigned char 
  3404 ;;		 -> PDUDATA(26), 
  3405 ;;  len             1    3[COMMON] unsigned char 
  3406 ;; Auto vars:     Size  Location     Type
  3407 ;;  chanel          1    8[COMMON] unsigned char 
  3408 ;;  i               1    9[COMMON] unsigned char 
  3409 ;; Return value:  Size  Location     Type
  3410 ;;		None               void
  3411 ;; Registers used:
  3412 ;;		wreg, fsr0l, fsr0h, status,2, status,0, pclath
  3413 ;; Tracked objects:
  3414 ;;		On entry : 60/0
  3415 ;;		On exit  : 60/0
  3416 ;;		Unchanged: FFE9F/0
  3417 ;; Data sizes:     COMMON   BANK0   BANK1
  3418 ;;      Params:         2       0       0
  3419 ;;      Locals:         2       0       0
  3420 ;;      Temps:          4       0       0
  3421 ;;      Totals:         8       0       0
  3422 ;;Total ram usage:        8 bytes
  3423 ;; Hardware stack levels used:    2
  3424 ;; Hardware stack levels required when called:    1
  3425 ;; This function calls:
  3426 ;;		Nothing
  3427 ;; This function is called by:
  3428 ;;		_LT8988_ble_tx_start
  3429 ;; This function uses a non-reentrant model
  3430 ;;
  3431  025A                     _LT8988_pdudata_white:	
  3432                           
  3433                           ; Regs used in _LT8988_pdudata_white: [wreg-fsr0h+status,2+status,0+pclath]
  3434                           ;LT8988_pdudata_white@chanel stored from wreg
  3435  025A  00F8               	movwf	LT8988_pdudata_white@chanel
  3436                           
  3437                           ;8988_ble.c: 78: unsigned char i;
  3438                           ;8988_ble.c: 80: if(chanel == 37)
  3439  025B  3A25               	xorlw	37
  3440  025C  1D03               	skipz
  3441  025D  2A69               	goto	l4567
  3442                           
  3443                           ;8988_ble.c: 81: {
  3444                           ;8988_ble.c: 82: for(i = 0; i < len; i++)
  3445  025E  01F9               	clrf	LT8988_pdudata_white@i
  3446  025F                     l4565:	
  3447  025F  0873               	movf	LT8988_pdudata_white@len,w
  3448  0260  0279               	subwf	LT8988_pdudata_white@i,w
  3449  0261  1803               	btfsc	3,0
  3450  0262  0008               	return
  3451                           
  3452                           ;8988_ble.c: 83: {
  3453                           ;8988_ble.c: 84: PDUDATA[i] = PDUDATA[i] ^ WHITE_INDEX37[i];
  3454  0263  0879               	movf	LT8988_pdudata_white@i,w
  3455  0264  3E01               	addlw	low (_WHITE_INDEX37-__stringbase)
  3456  0265  0084               	movwf	4
  3457  0266  2126               	fcall	stringdir
  3458  0267  2287               	fcall	PL3	;call to abstracted procedure
  3459  0268  2A5F               	goto	l4565
  3460  0269                     l4567:	
  3461                           
  3462                           ;8988_ble.c: 88: else if(chanel == 38)
  3463  0269  0878               	movf	LT8988_pdudata_white@chanel,w
  3464  026A  3A26               	xorlw	38
  3465  026B  1D03               	skipz
  3466  026C  2A78               	goto	l4577
  3467                           
  3468                           ;8988_ble.c: 89: {
  3469                           ;8988_ble.c: 90: for(i = 0; i < len; i++)
  3470  026D  01F9               	clrf	LT8988_pdudata_white@i
  3471  026E                     l4575:	
  3472  026E  0873               	movf	LT8988_pdudata_white@len,w
  3473  026F  0279               	subwf	LT8988_pdudata_white@i,w
  3474  0270  1803               	btfsc	3,0
  3475  0271  0008               	return
  3476                           
  3477                           ;8988_ble.c: 91: {
  3478                           ;8988_ble.c: 92: PDUDATA[i] = PDUDATA[i] ^ WHITE_INDEX38[i];
  3479  0272  0879               	movf	LT8988_pdudata_white@i,w
  3480  0273  3E28               	addlw	low (_WHITE_INDEX38-__stringbase)
  3481  0274  0084               	movwf	4
  3482  0275  2126               	fcall	stringdir
  3483  0276  2287               	fcall	PL3	;call to abstracted procedure
  3484  0277  2A6E               	goto	l4575
  3485  0278                     l4577:	
  3486                           
  3487                           ;8988_ble.c: 96: else if(chanel == 39)
  3488  0278  0878               	movf	LT8988_pdudata_white@chanel,w
  3489  0279  3A27               	xorlw	39
  3490  027A  1D03               	skipz
  3491  027B  0008               	return
  3492                           
  3493                           ;8988_ble.c: 97: {
  3494                           ;8988_ble.c: 98: for(i = 0; i < len; i++)
  3495  027C  01F9               	clrf	LT8988_pdudata_white@i
  3496  027D                     l4585:	
  3497  027D  0873               	movf	LT8988_pdudata_white@len,w
  3498  027E  0279               	subwf	LT8988_pdudata_white@i,w
  3499  027F  1803               	btfsc	3,0
  3500  0280  0008               	return
  3501                           
  3502                           ;8988_ble.c: 99: {
  3503                           ;8988_ble.c: 100: PDUDATA[i] = PDUDATA[i] ^ WHITE_INDEX39[i];
  3504  0281  0879               	movf	LT8988_pdudata_white@i,w
  3505  0282  3E4F               	addlw	low (_WHITE_INDEX39-__stringbase)
  3506  0283  0084               	movwf	4
  3507  0284  2126               	fcall	stringdir
  3508  0285  2287               	fcall	PL3	;call to abstracted procedure
  3509  0286  2A7D               	goto	l4585
  3510  0287                     __end_of_LT8988_pdudata_white:	
  3511  0287                     PL3:	
  3512  0287  00F4               	movwf	??_LT8988_pdudata_white
  3513  0288  0879               	movf	LT8988_pdudata_white@i,w
  3514  0289  0772               	addwf	LT8988_pdudata_white@PDUDATA,w
  3515  028A  00F5               	movwf	??_LT8988_pdudata_white+1
  3516  028B  0084               	movwf	4
  3517  028C  1383               	bcf	3,7	;select IRP bank0
  3518  028D  0800               	movf	0,w
  3519  028E  0674               	xorwf	??_LT8988_pdudata_white,w
  3520  028F  00F6               	movwf	??_LT8988_pdudata_white+2
  3521  0290  0879               	movf	LT8988_pdudata_white@i,w
  3522  0291  0772               	addwf	LT8988_pdudata_white@PDUDATA,w
  3523  0292  00F7               	movwf	??_LT8988_pdudata_white+3
  3524  0293  0084               	movwf	4
  3525  0294  0876               	movf	??_LT8988_pdudata_white+2,w
  3526  0295  0080               	movwf	0
  3527  0296  0AF9               	incf	LT8988_pdudata_white@i,f
  3528  0297  0008               	return
  3529                           
  3530                           	psect	text952
  3531  0458                     __ptext952:	
  3532 ;; =============== function _LT8988_pdudata_white ends ============
  3533                           
  3534                           
  3535 ;; *************** function _roll_data *****************
  3536 ;; Defined at:
  3537 ;;		line 17 in file "8988_ble.c"
  3538 ;; Parameters:    Size  Location     Type
  3539 ;;  roll_in         1    wreg     unsigned char 
  3540 ;; Auto vars:     Size  Location     Type
  3541 ;;  roll_in         1    3[COMMON] unsigned char 
  3542 ;;  i               1    5[COMMON] unsigned char 
  3543 ;;  roll_out        1    4[COMMON] unsigned char 
  3544 ;; Return value:  Size  Location     Type
  3545 ;;                  1    wreg      unsigned char 
  3546 ;; Registers used:
  3547 ;;		wreg, status,2, status,0
  3548 ;; Tracked objects:
  3549 ;;		On entry : 60/0
  3550 ;;		On exit  : 60/0
  3551 ;;		Unchanged: FFF9F/0
  3552 ;; Data sizes:     COMMON   BANK0   BANK1
  3553 ;;      Params:         0       0       0
  3554 ;;      Locals:         3       0       0
  3555 ;;      Temps:          1       0       0
  3556 ;;      Totals:         4       0       0
  3557 ;;Total ram usage:        4 bytes
  3558 ;; Hardware stack levels used:    1
  3559 ;; Hardware stack levels required when called:    1
  3560 ;; This function calls:
  3561 ;;		Nothing
  3562 ;; This function is called by:
  3563 ;;		_get_crc
  3564 ;; This function uses a non-reentrant model
  3565 ;;
  3566  0458                     _roll_data:	
  3567                           
  3568                           ; Regs used in _roll_data: [wreg+status,2+status,0]
  3569                           ;roll_data@roll_in stored from wreg
  3570  0458  00F3               	movwf	roll_data@roll_in
  3571                           
  3572                           ;8988_ble.c: 18: unsigned char i, roll_out = 0;
  3573  0459  01F4               	clrf	roll_data@roll_out
  3574                           
  3575                           ;8988_ble.c: 20: for(i = 0; i < 8; i++)
  3576  045A  01F5               	clrf	roll_data@i
  3577  045B                     l4547:	
  3578                           
  3579                           ;8988_ble.c: 21: {
  3580                           ;8988_ble.c: 22: if(roll_in & (1 << i)) roll_out |= 1 << (7 - i);
  3581  045B  3001               	movlw	1
  3582  045C  00F2               	movwf	??_roll_data
  3583  045D  0A75               	incf	roll_data@i,w
  3584  045E  2C61               	goto	u1694
  3585  045F                     u1695:	
  3586  045F  1003               	clrc
  3587  0460  0DF2               	rlf	??_roll_data,f
  3588  0461                     u1694:	
  3589  0461  3EFF               	addlw	-1
  3590  0462  1D03               	skipz
  3591  0463  2C5F               	goto	u1695
  3592  0464  0872               	movf	??_roll_data,w
  3593  0465  0573               	andwf	roll_data@roll_in,w
  3594  0466  1903               	btfsc	3,2
  3595  0467  2C75               	goto	l4551
  3596  0468  3001               	movlw	1
  3597  0469  00F2               	movwf	??_roll_data
  3598  046A  0875               	movf	roll_data@i,w
  3599  046B  3C07               	sublw	7
  3600  046C  3E01               	addlw	1
  3601  046D  2C70               	goto	u1714
  3602  046E                     u1715:	
  3603  046E  1003               	clrc
  3604  046F  0DF2               	rlf	??_roll_data,f
  3605  0470                     u1714:	
  3606  0470  3EFF               	addlw	-1
  3607  0471  1D03               	skipz
  3608  0472  2C6E               	goto	u1715
  3609  0473  0872               	movf	??_roll_data,w
  3610  0474  04F4               	iorwf	roll_data@roll_out,f
  3611  0475                     l4551:	
  3612  0475  3008               	movlw	8
  3613  0476  0AF5               	incf	roll_data@i,f
  3614  0477  0275               	subwf	roll_data@i,w
  3615  0478  1C03               	skipc
  3616  0479  2C5B               	goto	l4547
  3617                           
  3618                           ;8988_ble.c: 23: }
  3619                           ;8988_ble.c: 24: return roll_out;
  3620  047A  0874               	movf	roll_data@roll_out,w
  3621  047B  0008               	return
  3622  047C                     __end_of_roll_data:	
  3623                           
  3624                           	psect	text953
  3625  03AE                     __ptext953:	
  3626 ;; =============== function _roll_data ends ============
  3627                           
  3628                           
  3629 ;; *************** function _Read_Byte *****************
  3630 ;; Defined at:
  3631 ;;		line 183 in file "LT8988DRV.C"
  3632 ;; Parameters:    Size  Location     Type
  3633 ;;		None
  3634 ;; Auto vars:     Size  Location     Type
  3635 ;;  byte            1    2[COMMON] unsigned char 
  3636 ;; Return value:  Size  Location     Type
  3637 ;;                  1    wreg      unsigned char 
  3638 ;; Registers used:
  3639 ;;		wreg, status,2
  3640 ;; Tracked objects:
  3641 ;;		On entry : 0/0
  3642 ;;		On exit  : 60/20
  3643 ;;		Unchanged: FFF9F/0
  3644 ;; Data sizes:     COMMON   BANK0   BANK1
  3645 ;;      Params:         0       0       0
  3646 ;;      Locals:         1       0       0
  3647 ;;      Temps:          0       0       0
  3648 ;;      Totals:         1       0       0
  3649 ;;Total ram usage:        1 bytes
  3650 ;; Hardware stack levels used:    1
  3651 ;; Hardware stack levels required when called:    1
  3652 ;; This function calls:
  3653 ;;		Nothing
  3654 ;; This function is called by:
  3655 ;;		_LT8988_ReadReg
  3656 ;;		_LT8988_ReadBUF
  3657 ;; This function uses a non-reentrant model
  3658 ;;
  3659  03AE                     _Read_Byte:	
  3660                           
  3661                           ;LT8988DRV.C: 186: unsigned char byte = 0;
  3662                           
  3663                           ; Regs used in _Read_Byte: [wreg+status,2]
  3664  03AE  01F2               	clrf	Read_Byte@byte
  3665                           
  3666                           ;LT8988DRV.C: 188: RC1=1;
  3667  03AF  1283               	bcf	3,5	;RP0=0, select bank0
  3668  03B0  1303               	bcf	3,6	;RP1=0, select bank0
  3669  03B1  1487               	bsf	7,1
  3670                           
  3671                           ;LT8988DRV.C: 189: TRISC1=1;
  3672  03B2  1683               	bsf	3,5	;RP0=1, select bank1
  3673  03B3  1487               	bsf	7,1
  3674                           
  3675                           ;LT8988DRV.C: 213: RC0=0;
  3676  03B4  1283               	bcf	3,5	;RP0=0, select bank0
  3677  03B5  1007               	bcf	7,0
  3678                           
  3679                           ;LT8988DRV.C: 215: RC0=1;
  3680  03B6  1407               	bsf	7,0
  3681                           
  3682                           ;LT8988DRV.C: 217: if ((RC1))
  3683  03B7  1887               	btfsc	7,1
  3684                           
  3685                           ;LT8988DRV.C: 218: {
  3686                           ;LT8988DRV.C: 219: byte |= 0x80;
  3687  03B8  17F2               	bsf	Read_Byte@byte,7
  3688                           
  3689                           ;LT8988DRV.C: 220: }
  3690                           ;LT8988DRV.C: 226: RC0=0;
  3691  03B9  1007               	bcf	7,0
  3692                           
  3693                           ;LT8988DRV.C: 228: RC0=1;
  3694  03BA  1407               	bsf	7,0
  3695                           
  3696                           ;LT8988DRV.C: 230: if ((RC1))
  3697  03BB  1887               	btfsc	7,1
  3698                           
  3699                           ;LT8988DRV.C: 231: {
  3700                           ;LT8988DRV.C: 232: byte |= 0x40;
  3701  03BC  1772               	bsf	Read_Byte@byte,6
  3702                           
  3703                           ;LT8988DRV.C: 233: }
  3704                           ;LT8988DRV.C: 239: RC0=0;
  3705  03BD  1007               	bcf	7,0
  3706                           
  3707                           ;LT8988DRV.C: 241: RC0=1;
  3708  03BE  1407               	bsf	7,0
  3709                           
  3710                           ;LT8988DRV.C: 243: if ((RC1))
  3711  03BF  1887               	btfsc	7,1
  3712                           
  3713                           ;LT8988DRV.C: 244: {
  3714                           ;LT8988DRV.C: 245: byte |= 0x20;
  3715  03C0  16F2               	bsf	Read_Byte@byte,5
  3716                           
  3717                           ;LT8988DRV.C: 246: }
  3718                           ;LT8988DRV.C: 252: RC0=0;
  3719  03C1  1007               	bcf	7,0
  3720                           
  3721                           ;LT8988DRV.C: 254: RC0=1;
  3722  03C2  1407               	bsf	7,0
  3723                           
  3724                           ;LT8988DRV.C: 256: if ((RC1))
  3725  03C3  1887               	btfsc	7,1
  3726                           
  3727                           ;LT8988DRV.C: 257: {
  3728                           ;LT8988DRV.C: 258: byte |= 0x10;
  3729  03C4  1672               	bsf	Read_Byte@byte,4
  3730                           
  3731                           ;LT8988DRV.C: 259: }
  3732                           ;LT8988DRV.C: 265: RC0=0;
  3733  03C5  1007               	bcf	7,0
  3734                           
  3735                           ;LT8988DRV.C: 267: RC0=1;
  3736  03C6  1407               	bsf	7,0
  3737                           
  3738                           ;LT8988DRV.C: 269: if ((RC1))
  3739  03C7  1887               	btfsc	7,1
  3740                           
  3741                           ;LT8988DRV.C: 270: {
  3742                           ;LT8988DRV.C: 271: byte |= 0x8;
  3743  03C8  15F2               	bsf	Read_Byte@byte,3
  3744                           
  3745                           ;LT8988DRV.C: 272: }
  3746                           ;LT8988DRV.C: 278: RC0=0;
  3747  03C9  1007               	bcf	7,0
  3748                           
  3749                           ;LT8988DRV.C: 280: RC0=1;
  3750  03CA  1407               	bsf	7,0
  3751                           
  3752                           ;LT8988DRV.C: 282: if ((RC1))
  3753  03CB  1887               	btfsc	7,1
  3754                           
  3755                           ;LT8988DRV.C: 283: {
  3756                           ;LT8988DRV.C: 284: byte |= 0x4;
  3757  03CC  1572               	bsf	Read_Byte@byte,2
  3758                           
  3759                           ;LT8988DRV.C: 285: }
  3760                           ;LT8988DRV.C: 291: RC0=0;
  3761  03CD  1007               	bcf	7,0
  3762                           
  3763                           ;LT8988DRV.C: 293: RC0=1;
  3764  03CE  1407               	bsf	7,0
  3765                           
  3766                           ;LT8988DRV.C: 295: if ((RC1))
  3767  03CF  1887               	btfsc	7,1
  3768                           
  3769                           ;LT8988DRV.C: 296: {
  3770                           ;LT8988DRV.C: 297: byte |= 0x2;
  3771  03D0  14F2               	bsf	Read_Byte@byte,1
  3772                           
  3773                           ;LT8988DRV.C: 298: }
  3774                           ;LT8988DRV.C: 304: RC0=0;
  3775  03D1  1007               	bcf	7,0
  3776                           
  3777                           ;LT8988DRV.C: 306: RC0=1;
  3778  03D2  1407               	bsf	7,0
  3779                           
  3780                           ;LT8988DRV.C: 308: if ((RC1))
  3781  03D3  1887               	btfsc	7,1
  3782                           
  3783                           ;LT8988DRV.C: 309: {
  3784                           ;LT8988DRV.C: 310: byte |= 0x1;
  3785  03D4  1472               	bsf	Read_Byte@byte,0
  3786                           
  3787                           ;LT8988DRV.C: 311: }
  3788                           ;LT8988DRV.C: 316: RC0=0;
  3789  03D5  1007               	bcf	7,0
  3790                           
  3791                           ;LT8988DRV.C: 318: TRISC1=0;
  3792  03D6  1683               	bsf	3,5	;RP0=1, select bank1
  3793  03D7  1087               	bcf	7,1
  3794                           
  3795                           ;LT8988DRV.C: 319: return byte;
  3796  03D8  0872               	movf	Read_Byte@byte,w
  3797  03D9  0008               	return
  3798  03DA                     __end_of_Read_Byte:	
  3799                           
  3800                           	psect	text954
  3801  0310                     __ptext954:	
  3802 ;; =============== function _Read_Byte ends ============
  3803                           
  3804                           
  3805 ;; *************** function _Send_Byte *****************
  3806 ;; Defined at:
  3807 ;;		line 69 in file "LT8988DRV.C"
  3808 ;; Parameters:    Size  Location     Type
  3809 ;;  DATA            1    wreg     unsigned char 
  3810 ;; Auto vars:     Size  Location     Type
  3811 ;;  DATA            1    2[COMMON] unsigned char 
  3812 ;; Return value:  Size  Location     Type
  3813 ;;		None               void
  3814 ;; Registers used:
  3815 ;;		wreg
  3816 ;; Tracked objects:
  3817 ;;		On entry : 60/0
  3818 ;;		On exit  : 60/0
  3819 ;;		Unchanged: FFF9F/0
  3820 ;; Data sizes:     COMMON   BANK0   BANK1
  3821 ;;      Params:         0       0       0
  3822 ;;      Locals:         1       0       0
  3823 ;;      Temps:          0       0       0
  3824 ;;      Totals:         1       0       0
  3825 ;;Total ram usage:        1 bytes
  3826 ;; Hardware stack levels used:    1
  3827 ;; Hardware stack levels required when called:    1
  3828 ;; This function calls:
  3829 ;;		Nothing
  3830 ;; This function is called by:
  3831 ;;		_LT8988_WriteReg
  3832 ;;		_LT8988_ReadReg
  3833 ;;		_LT8988_ReadBUF
  3834 ;; This function uses a non-reentrant model
  3835 ;;
  3836  0310                     _Send_Byte:	
  3837                           
  3838                           ; Regs used in _Send_Byte: [wreg]
  3839                           ;Send_Byte@DATA stored from wreg
  3840  0310  00F2               	movwf	Send_Byte@DATA
  3841                           
  3842                           ;LT8988DRV.C: 87: RC0=0;
  3843  0311  1007               	bcf	7,0
  3844                           
  3845                           ;LT8988DRV.C: 89: if (DATA & 0x80)
  3846  0312  1FF2               	btfss	Send_Byte@DATA,7
  3847  0313  2B16               	goto	l2227
  3848                           
  3849                           ;LT8988DRV.C: 90: RC1=1;
  3850  0314  1487               	bsf	7,1
  3851  0315  2B17               	goto	l2228
  3852  0316                     l2227:	
  3853                           
  3854                           ;LT8988DRV.C: 91: else
  3855                           ;LT8988DRV.C: 92: RC1=0;
  3856  0316  1087               	bcf	7,1
  3857  0317                     l2228:	
  3858                           
  3859                           ;LT8988DRV.C: 95: RC0=1;
  3860  0317  1407               	bsf	7,0
  3861                           
  3862                           ;LT8988DRV.C: 98: RC0=0;
  3863  0318  1007               	bcf	7,0
  3864                           
  3865                           ;LT8988DRV.C: 100: if (DATA & 0x40)
  3866  0319  1F72               	btfss	Send_Byte@DATA,6
  3867  031A  2B1D               	goto	l2229
  3868                           
  3869                           ;LT8988DRV.C: 101: RC1=1;
  3870  031B  1487               	bsf	7,1
  3871  031C  2B1E               	goto	l2230
  3872  031D                     l2229:	
  3873                           
  3874                           ;LT8988DRV.C: 102: else
  3875                           ;LT8988DRV.C: 103: RC1=0;
  3876  031D  1087               	bcf	7,1
  3877  031E                     l2230:	
  3878                           
  3879                           ;LT8988DRV.C: 106: RC0=1;
  3880  031E  1407               	bsf	7,0
  3881                           
  3882                           ;LT8988DRV.C: 109: RC0=0;
  3883  031F  1007               	bcf	7,0
  3884                           
  3885                           ;LT8988DRV.C: 111: if (DATA & 0x20)
  3886  0320  1EF2               	btfss	Send_Byte@DATA,5
  3887  0321  2B24               	goto	l2231
  3888                           
  3889                           ;LT8988DRV.C: 112: RC1=1;
  3890  0322  1487               	bsf	7,1
  3891  0323  2B25               	goto	l2232
  3892  0324                     l2231:	
  3893                           
  3894                           ;LT8988DRV.C: 113: else
  3895                           ;LT8988DRV.C: 114: RC1=0;
  3896  0324  1087               	bcf	7,1
  3897  0325                     l2232:	
  3898                           
  3899                           ;LT8988DRV.C: 117: RC0=1;
  3900  0325  1407               	bsf	7,0
  3901                           
  3902                           ;LT8988DRV.C: 120: RC0=0;
  3903  0326  1007               	bcf	7,0
  3904                           
  3905                           ;LT8988DRV.C: 122: if (DATA & 0x10)
  3906  0327  1E72               	btfss	Send_Byte@DATA,4
  3907  0328  2B2B               	goto	l2233
  3908                           
  3909                           ;LT8988DRV.C: 123: RC1=1;
  3910  0329  1487               	bsf	7,1
  3911  032A  2B2C               	goto	l2234
  3912  032B                     l2233:	
  3913                           
  3914                           ;LT8988DRV.C: 124: else
  3915                           ;LT8988DRV.C: 125: RC1=0;
  3916  032B  1087               	bcf	7,1
  3917  032C                     l2234:	
  3918                           
  3919                           ;LT8988DRV.C: 128: RC0=1;
  3920  032C  1407               	bsf	7,0
  3921                           
  3922                           ;LT8988DRV.C: 132: RC0=0;
  3923  032D  1007               	bcf	7,0
  3924                           
  3925                           ;LT8988DRV.C: 134: if (DATA & 0x8)
  3926  032E  1DF2               	btfss	Send_Byte@DATA,3
  3927  032F  2B32               	goto	l2235
  3928                           
  3929                           ;LT8988DRV.C: 135: RC1=1;
  3930  0330  1487               	bsf	7,1
  3931  0331  2B33               	goto	l2236
  3932  0332                     l2235:	
  3933                           
  3934                           ;LT8988DRV.C: 136: else
  3935                           ;LT8988DRV.C: 137: RC1=0;
  3936  0332  1087               	bcf	7,1
  3937  0333                     l2236:	
  3938                           
  3939                           ;LT8988DRV.C: 140: RC0=1;
  3940  0333  1407               	bsf	7,0
  3941                           
  3942                           ;LT8988DRV.C: 143: RC0=0;
  3943  0334  1007               	bcf	7,0
  3944                           
  3945                           ;LT8988DRV.C: 145: if (DATA & 0x4)
  3946  0335  1D72               	btfss	Send_Byte@DATA,2
  3947  0336  2B39               	goto	l2237
  3948                           
  3949                           ;LT8988DRV.C: 146: RC1=1;
  3950  0337  1487               	bsf	7,1
  3951  0338  2B3A               	goto	l2238
  3952  0339                     l2237:	
  3953                           
  3954                           ;LT8988DRV.C: 147: else
  3955                           ;LT8988DRV.C: 148: RC1=0;
  3956  0339  1087               	bcf	7,1
  3957  033A                     l2238:	
  3958                           
  3959                           ;LT8988DRV.C: 151: RC0=1;
  3960  033A  1407               	bsf	7,0
  3961                           
  3962                           ;LT8988DRV.C: 154: RC0=0;
  3963  033B  1007               	bcf	7,0
  3964                           
  3965                           ;LT8988DRV.C: 156: if (DATA & 0x2)
  3966  033C  1CF2               	btfss	Send_Byte@DATA,1
  3967  033D  2B40               	goto	l2239
  3968                           
  3969                           ;LT8988DRV.C: 157: RC1=1;
  3970  033E  1487               	bsf	7,1
  3971  033F  2B41               	goto	l2240
  3972  0340                     l2239:	
  3973                           
  3974                           ;LT8988DRV.C: 158: else
  3975                           ;LT8988DRV.C: 159: RC1=0;
  3976  0340  1087               	bcf	7,1
  3977  0341                     l2240:	
  3978                           
  3979                           ;LT8988DRV.C: 162: RC0=1;
  3980  0341  1407               	bsf	7,0
  3981                           
  3982                           ;LT8988DRV.C: 165: RC0=0;
  3983  0342  1007               	bcf	7,0
  3984                           
  3985                           ;LT8988DRV.C: 167: if (DATA & 0x1)
  3986  0343  1C72               	btfss	Send_Byte@DATA,0
  3987  0344  2B47               	goto	l2241
  3988                           
  3989                           ;LT8988DRV.C: 168: RC1=1;
  3990  0345  1487               	bsf	7,1
  3991  0346  2B48               	goto	l2242
  3992  0347                     l2241:	
  3993                           
  3994                           ;LT8988DRV.C: 169: else
  3995                           ;LT8988DRV.C: 170: RC1=0;
  3996  0347  1087               	bcf	7,1
  3997  0348                     l2242:	
  3998                           
  3999                           ;LT8988DRV.C: 173: RC0=1;
  4000  0348  1407               	bsf	7,0
  4001                           
  4002                           ;LT8988DRV.C: 176: RC0=0;
  4003  0349  1007               	bcf	7,0
  4004  034A  0008               	return
  4005  034B                     __end_of_Send_Byte:	
  4006                           
  4007                           	psect	text955
  4008  058C                     __ptext955:	
  4009 ;; =============== function _Send_Byte ends ============
  4010                           
  4011                           
  4012 ;; *************** function _LT8988_stop *****************
  4013 ;; Defined at:
  4014 ;;		line 53 in file "LT8988DRV.C"
  4015 ;; Parameters:    Size  Location     Type
  4016 ;;		None
  4017 ;; Auto vars:     Size  Location     Type
  4018 ;;		None
  4019 ;; Return value:  Size  Location     Type
  4020 ;;		None               void
  4021 ;; Registers used:
  4022 ;;		None
  4023 ;; Tracked objects:
  4024 ;;		On entry : 60/0
  4025 ;;		On exit  : 60/0
  4026 ;;		Unchanged: FFF9F/0
  4027 ;; Data sizes:     COMMON   BANK0   BANK1
  4028 ;;      Params:         0       0       0
  4029 ;;      Locals:         0       0       0
  4030 ;;      Temps:          0       0       0
  4031 ;;      Totals:         0       0       0
  4032 ;;Total ram usage:        0 bytes
  4033 ;; Hardware stack levels used:    1
  4034 ;; Hardware stack levels required when called:    1
  4035 ;; This function calls:
  4036 ;;		Nothing
  4037 ;; This function is called by:
  4038 ;;		_LT8988_WriteReg
  4039 ;;		_LT8988_ReadReg
  4040 ;;		_LT8988_ReadBUF
  4041 ;; This function uses a non-reentrant model
  4042 ;;
  4043  058C                     _LT8988_stop:	
  4044  058C                     l4489:	
  4045                           ; Regs used in _LT8988_stop: []
  4046                           
  4047                           
  4048                           ;LT8988DRV.C: 54: RC0=0;
  4049  058C  1007               	bcf	7,0
  4050                           
  4051                           ;LT8988DRV.C: 56: RC1=0;
  4052  058D  1087               	bcf	7,1
  4053                           
  4054                           ;LT8988DRV.C: 58: RC0=1;
  4055  058E  1407               	bsf	7,0
  4056                           
  4057                           ;LT8988DRV.C: 60: RC1=1;
  4058  058F  1487               	bsf	7,1
  4059                           
  4060                           ;LT8988DRV.C: 62: RC0=0;
  4061  0590  1007               	bcf	7,0
  4062                           
  4063                           ;LT8988DRV.C: 64: RC0=1;
  4064  0591  1407               	bsf	7,0
  4065  0592  0008               	return
  4066  0593                     __end_of_LT8988_stop:	
  4067                           
  4068                           	psect	text956
  4069  0593                     __ptext956:	
  4070 ;; =============== function _LT8988_stop ends ============
  4071                           
  4072                           
  4073 ;; *************** function _LT8988_start *****************
  4074 ;; Defined at:
  4075 ;;		line 40 in file "LT8988DRV.C"
  4076 ;; Parameters:    Size  Location     Type
  4077 ;;		None
  4078 ;; Auto vars:     Size  Location     Type
  4079 ;;		None
  4080 ;; Return value:  Size  Location     Type
  4081 ;;		None               void
  4082 ;; Registers used:
  4083 ;;		None
  4084 ;; Tracked objects:
  4085 ;;		On entry : 40/0
  4086 ;;		On exit  : 60/0
  4087 ;;		Unchanged: FFF9F/0
  4088 ;; Data sizes:     COMMON   BANK0   BANK1
  4089 ;;      Params:         0       0       0
  4090 ;;      Locals:         0       0       0
  4091 ;;      Temps:          0       0       0
  4092 ;;      Totals:         0       0       0
  4093 ;;Total ram usage:        0 bytes
  4094 ;; Hardware stack levels used:    1
  4095 ;; Hardware stack levels required when called:    1
  4096 ;; This function calls:
  4097 ;;		Nothing
  4098 ;; This function is called by:
  4099 ;;		_LT8988_WriteReg
  4100 ;;		_LT8988_ReadReg
  4101 ;;		_LT8988_ReadBUF
  4102 ;; This function uses a non-reentrant model
  4103 ;;
  4104  0593                     _LT8988_start:	
  4105                           
  4106                           ;LT8988DRV.C: 41: RC1=1;
  4107                           
  4108                           ; Regs used in _LT8988_start: []
  4109  0593  1283               	bcf	3,5	;RP0=0, select bank0
  4110  0594  1487               	bsf	7,1
  4111                           
  4112                           ;LT8988DRV.C: 42: RC0=1;
  4113  0595  1407               	bsf	7,0
  4114                           
  4115                           ;LT8988DRV.C: 45: RC1=0;
  4116  0596  1087               	bcf	7,1
  4117                           
  4118                           ;LT8988DRV.C: 48: RC0=0;
  4119  0597  1007               	bcf	7,0
  4120  0598  0008               	return
  4121  0599                     __end_of_LT8988_start:	
  4122                           
  4123                           	psect	text957
  4124  0431                     __ptext957:	
  4125 ;; =============== function _LT8988_start ends ============
  4126                           
  4127                           
  4128 ;; *************** function _check_sum *****************
  4129 ;; Defined at:
  4130 ;;		line 568 in file "LT8988DRV.C"
  4131 ;; Parameters:    Size  Location     Type
  4132 ;;  buf             1    wreg     PTR unsigned char 
  4133 ;;		 -> RXADVDATA(13), 
  4134 ;;  len             1    2[COMMON] unsigned char 
  4135 ;; Auto vars:     Size  Location     Type
  4136 ;;  buf             1    6[COMMON] PTR unsigned char 
  4137 ;;		 -> RXADVDATA(13), 
  4138 ;;  i               1    7[COMMON] unsigned char 
  4139 ;;  sum             1    5[COMMON] unsigned char 
  4140 ;; Return value:  Size  Location     Type
  4141 ;;                  1    wreg      unsigned char 
  4142 ;; Registers used:
  4143 ;;		wreg, fsr0l, fsr0h, status,2, status,0
  4144 ;; Tracked objects:
  4145 ;;		On entry : 60/0
  4146 ;;		On exit  : 100/0
  4147 ;;		Unchanged: FFE00/0
  4148 ;; Data sizes:     COMMON   BANK0   BANK1
  4149 ;;      Params:         1       0       0
  4150 ;;      Locals:         3       0       0
  4151 ;;      Temps:          2       0       0
  4152 ;;      Totals:         6       0       0
  4153 ;;Total ram usage:        6 bytes
  4154 ;; Hardware stack levels used:    1
  4155 ;; Hardware stack levels required when called:    1
  4156 ;; This function calls:
  4157 ;;		Nothing
  4158 ;; This function is called by:
  4159 ;;		_ble_chanel_scan
  4160 ;; This function uses a non-reentrant model
  4161 ;;
  4162  0431                     _check_sum:	
  4163                           
  4164                           ; Regs used in _check_sum: [wreg-fsr0h+status,2+status,0]
  4165                           ;check_sum@buf stored from wreg
  4166  0431  00F6               	movwf	check_sum@buf
  4167                           
  4168                           ;LT8988DRV.C: 570: unsigned char sum, i;
  4169                           ;LT8988DRV.C: 571: sum = 0;
  4170  0432  01F5               	clrf	check_sum@sum
  4171                           
  4172                           ;LT8988DRV.C: 572: i = 0;
  4173  0433  01F7               	clrf	check_sum@i
  4174                           
  4175                           ;LT8988DRV.C: 573: for(i = 0; i < len - 1; i++)
  4176  0434  01F7               	clrf	check_sum@i
  4177  0435                     l4045:	
  4178  0435  0872               	movf	check_sum@len,w
  4179  0436  3EFF               	addlw	255
  4180  0437  00F3               	movwf	??_check_sum
  4181  0438  30FF               	movlw	255
  4182  0439  1803               	skipnc
  4183  043A  3000               	movlw	0
  4184  043B  00F4               	movwf	??_check_sum+1
  4185  043C  3A80               	xorlw	128
  4186  043D  3C80               	sublw	128
  4187  043E  1D03               	skipz
  4188  043F  2C42               	goto	u825
  4189  0440  0873               	movf	??_check_sum,w
  4190  0441  0277               	subwf	check_sum@i,w
  4191  0442                     u825:	
  4192  0442  1803               	btfsc	3,0
  4193  0443  2C4D               	goto	l4047
  4194                           
  4195                           ;LT8988DRV.C: 574: {
  4196                           ;LT8988DRV.C: 576: sum = buf[i] + sum;
  4197  0444  0877               	movf	check_sum@i,w
  4198  0445  0776               	addwf	check_sum@buf,w
  4199  0446  00F3               	movwf	??_check_sum
  4200  0447  0084               	movwf	4
  4201  0448  1383               	bcf	3,7	;select IRP bank0
  4202  0449  0800               	movf	0,w
  4203  044A  07F5               	addwf	check_sum@sum,f
  4204  044B  0AF7               	incf	check_sum@i,f
  4205  044C  2C35               	goto	l4045
  4206  044D                     l4047:	
  4207                           
  4208                           ;LT8988DRV.C: 577: }
  4209                           ;LT8988DRV.C: 578: if(buf[len - 1] == sum)
  4210  044D  0872               	movf	check_sum@len,w
  4211  044E  0776               	addwf	check_sum@buf,w
  4212  044F  00F3               	movwf	??_check_sum
  4213  0450  3EFF               	addlw	-1
  4214  0451  0084               	movwf	4
  4215  0452  1383               	bcf	3,7	;select IRP bank0
  4216  0453  0800               	movf	0,w
  4217  0454  0675               	xorwf	check_sum@sum,w
  4218  0455  1903               	btfsc	3,2
  4219                           
  4220                           ;LT8988DRV.C: 579: {
  4221                           ;LT8988DRV.C: 580: return 1;
  4222  0456  3401               	retlw	1
  4223                           
  4224                           ;LT8988DRV.C: 581: }
  4225                           ;LT8988DRV.C: 582: return 0;
  4226  0457  3400               	retlw	0
  4227  0458                     __end_of_check_sum:	
  4228                           
  4229                           	psect	text958
  4230  04FF                     __ptext958:	
  4231 ;; =============== function _check_sum ends ============
  4232                           
  4233                           
  4234 ;; *************** function _DelayMs *****************
  4235 ;; Defined at:
  4236 ;;		line 379 in file "LT8988DRV.C"
  4237 ;; Parameters:    Size  Location     Type
  4238 ;;  Tms             1    wreg     unsigned char 
  4239 ;; Auto vars:     Size  Location     Type
  4240 ;;  Tms             1    4[COMMON] unsigned char 
  4241 ;;  dly             2    2[COMMON] unsigned int 
  4242 ;; Return value:  Size  Location     Type
  4243 ;;		None               void
  4244 ;; Registers used:
  4245 ;;		wreg, status,2, status,0
  4246 ;; Tracked objects:
  4247 ;;		On entry : 60/0
  4248 ;;		On exit  : 60/0
  4249 ;;		Unchanged: FFF9F/0
  4250 ;; Data sizes:     COMMON   BANK0   BANK1
  4251 ;;      Params:         0       0       0
  4252 ;;      Locals:         3       0       0
  4253 ;;      Temps:          0       0       0
  4254 ;;      Totals:         3       0       0
  4255 ;;Total ram usage:        3 bytes
  4256 ;; Hardware stack levels used:    1
  4257 ;; Hardware stack levels required when called:    1
  4258 ;; This function calls:
  4259 ;;		Nothing
  4260 ;; This function is called by:
  4261 ;;		_lt8988_ble_tx
  4262 ;;		_ble_chanel_scan
  4263 ;;		_LT8988_INIT
  4264 ;; This function uses a non-reentrant model
  4265 ;;
  4266  04FF                     _DelayMs:	
  4267                           
  4268                           ; Regs used in _DelayMs: [wreg+status,2+status,0]
  4269                           ;DelayMs@Tms stored from wreg
  4270  04FF  00F4               	movwf	DelayMs@Tms
  4271  0500                     l4037:	
  4272                           ;LT8988DRV.C: 381: unsigned int dly;
  4273                           ;LT8988DRV.C: 382: while(Tms)
  4274                           
  4275  0500  08F4               	movf	DelayMs@Tms,f
  4276  0501  1903               	btfsc	3,2
  4277  0502  0008               	return
  4278  0503  308A               	movlw	138
  4279                           
  4280                           ;LT8988DRV.C: 383: {
  4281                           ;LT8988DRV.C: 384: Tms--;
  4282  0504  03F4               	decf	DelayMs@Tms,f
  4283                           
  4284                           ;LT8988DRV.C: 385: dly = 650;
  4285  0505  00F2               	movwf	DelayMs@dly
  4286  0506  3002               	movlw	2
  4287  0507  00F3               	movwf	DelayMs@dly+1
  4288  0508                     l4035:	
  4289                           ;LT8988DRV.C: 386: while(dly) dly--;
  4290                           
  4291  0508  0873               	movf	DelayMs@dly+1,w
  4292  0509  0472               	iorwf	DelayMs@dly,w
  4293  050A  1903               	btfsc	3,2
  4294  050B  2D00               	goto	l4037
  4295  050C  3001               	movlw	1
  4296  050D  02F2               	subwf	DelayMs@dly,f
  4297  050E  3000               	movlw	0
  4298  050F  1C03               	skipc
  4299  0510  03F3               	decf	DelayMs@dly+1,f
  4300  0511  02F3               	subwf	DelayMs@dly+1,f
  4301  0512  2D08               	goto	l4035
  4302  0513                     __end_of_DelayMs:	
  4303                           
  4304                           	psect	text959
  4305  03DA                     __ptext959:	
  4306 ;; =============== function _DelayMs ends ============
  4307                           
  4308                           
  4309 ;; *************** function _Init *****************
  4310 ;; Defined at:
  4311 ;;		line 73 in file "main.c"
  4312 ;; Parameters:    Size  Location     Type
  4313 ;;		None
  4314 ;; Auto vars:     Size  Location     Type
  4315 ;;		None
  4316 ;; Return value:  Size  Location     Type
  4317 ;;		None               void
  4318 ;; Registers used:
  4319 ;;		wreg, status,2
  4320 ;; Tracked objects:
  4321 ;;		On entry : 17F/0
  4322 ;;		On exit  : 17F/20
  4323 ;;		Unchanged: FFE80/0
  4324 ;; Data sizes:     COMMON   BANK0   BANK1
  4325 ;;      Params:         0       0       0
  4326 ;;      Locals:         0       0       0
  4327 ;;      Temps:          0       0       0
  4328 ;;      Totals:         0       0       0
  4329 ;;Total ram usage:        0 bytes
  4330 ;; Hardware stack levels used:    1
  4331 ;; Hardware stack levels required when called:    1
  4332 ;; This function calls:
  4333 ;;		Nothing
  4334 ;; This function is called by:
  4335 ;;		_main
  4336 ;; This function uses a non-reentrant model
  4337 ;;
  4338  03DA                     _Init:	
  4339                           
  4340                           ;main.c: 84: OSCCON = 0B01110001;
  4341                           
  4342                           ; Regs used in _Init: [wreg+status,2]
  4343  03DA  3071               	movlw	113
  4344  03DB  1683               	bsf	3,5	;RP0=1, select bank1
  4345  03DC  008F               	movwf	15	;volatile
  4346                           
  4347                           ;main.c: 87: INTCON = 0;
  4348  03DD  018B               	clrf	11	;volatile
  4349                           
  4350                           ;main.c: 88: PORTA = 0B00000000;
  4351  03DE  1283               	bcf	3,5	;RP0=0, select bank0
  4352  03DF  0185               	clrf	5	;volatile
  4353                           
  4354                           ;main.c: 89: TRISA = 0B00000000;
  4355  03E0  1683               	bsf	3,5	;RP0=1, select bank1
  4356  03E1  0185               	clrf	5	;volatile
  4357                           
  4358                           ;main.c: 90: PORTC = 0B00000011;
  4359  03E2  3003               	movlw	3
  4360  03E3  1283               	bcf	3,5	;RP0=0, select bank0
  4361  03E4  0087               	movwf	7	;volatile
  4362                           
  4363                           ;main.c: 91: TRISC = 0B00000000;
  4364  03E5  1683               	bsf	3,5	;RP0=1, select bank1
  4365  03E6  0187               	clrf	7	;volatile
  4366                           
  4367                           ;main.c: 93: WPUA = 0B00000111;
  4368  03E7  3007               	movlw	7
  4369  03E8  0095               	movwf	21	;volatile
  4370                           
  4371                           ;main.c: 94: WPUC = 0B00000000;
  4372  03E9  0188               	clrf	8	;volatile
  4373                           
  4374                           ;main.c: 95: OPTION = 0B10001000;
  4375  03EA  3088               	movlw	136
  4376  03EB  0081               	movwf	1	;volatile
  4377                           
  4378                           ;main.c: 97: MSCKCON = 0B00000000;
  4379  03EC  1283               	bcf	3,5	;RP0=0, select bank0
  4380  03ED  019B               	clrf	27	;volatile
  4381                           
  4382                           ;main.c: 100: CMCON0 = 0B00000111;
  4383  03EE  3007               	movlw	7
  4384  03EF  0099               	movwf	25	;volatile
  4385                           
  4386                           ;main.c: 104: T1CON = 0B00000000;
  4387  03F0  0190               	clrf	16	;volatile
  4388                           
  4389                           ;main.c: 107: TMR1L = 0XBF;
  4390  03F1  30BF               	movlw	191
  4391  03F2  008E               	movwf	14	;volatile
  4392                           
  4393                           ;main.c: 109: TMR1H = 0XE0;
  4394  03F3  30E0               	movlw	224
  4395  03F4  008F               	movwf	15	;volatile
  4396  03F5  3010               	movlw	16
  4397                           
  4398                           ;main.c: 110: TMR1IE = 1;
  4399  03F6  1683               	bsf	3,5	;RP0=1, select bank1
  4400  03F7  140C               	bsf	12,0
  4401                           
  4402                           ;main.c: 111: TMR1ON = 1;
  4403  03F8  1283               	bcf	3,5	;RP0=0, select bank0
  4404  03F9  1410               	bsf	16,0
  4405                           
  4406                           ;main.c: 112: PEIE = 1;
  4407  03FA  170B               	bsf	11,6
  4408                           
  4409                           ;main.c: 113: GIE = 1;
  4410  03FB  178B               	bsf	11,7
  4411                           
  4412                           ;main.c: 116: ADCON1 = 0B00010000;
  4413  03FC  1683               	bsf	3,5	;RP0=1, select bank1
  4414  03FD  009F               	movwf	31	;volatile
  4415                           
  4416                           ;main.c: 118: ADCON1 = 0B01010000;
  4417  03FE  3050               	movlw	80
  4418  03FF  009F               	movwf	31	;volatile
  4419                           
  4420                           ;main.c: 120: ADCON0 = 0B10001001;
  4421  0400  3089               	movlw	137
  4422  0401  1283               	bcf	3,5	;RP0=0, select bank0
  4423  0402  009F               	movwf	31	;volatile
  4424                           
  4425                           ;main.c: 124: ANSEL = 0;
  4426  0403  1683               	bsf	3,5	;RP0=1, select bank1
  4427  0404  0191               	clrf	17	;volatile
  4428  0405  0008               	return
  4429  0406                     __end_of_Init:	
  4430                           
  4431                           	psect	text960
  4432  047C                     __ptext960:	
  4433 ;; =============== function _Init ends ============
  4434                           
  4435                           
  4436 ;; *************** function _ISR *****************
  4437 ;; Defined at:
  4438 ;;		line 45 in file "main.c"
  4439 ;; Parameters:    Size  Location     Type
  4440 ;;		None
  4441 ;; Auto vars:     Size  Location     Type
  4442 ;;		None
  4443 ;; Return value:  Size  Location     Type
  4444 ;;		None               void
  4445 ;; Registers used:
  4446 ;;		wreg, status,2, status,0
  4447 ;; Tracked objects:
  4448 ;;		On entry : 0/0
  4449 ;;		On exit  : 40/0
  4450 ;;		Unchanged: FFF9F/0
  4451 ;; Data sizes:     COMMON   BANK0   BANK1
  4452 ;;      Params:         0       0       0
  4453 ;;      Locals:         0       0       0
  4454 ;;      Temps:          2       0       0
  4455 ;;      Totals:         2       0       0
  4456 ;;Total ram usage:        2 bytes
  4457 ;; Hardware stack levels used:    1
  4458 ;; This function calls:
  4459 ;;		Nothing
  4460 ;; This function is called by:
  4461 ;;		Interrupt level 1
  4462 ;; This function uses a non-reentrant model
  4463 ;;
  4464  047C                     _ISR:	
  4465                           
  4466                           ;main.c: 46: GIE = 0;
  4467  047C  138B               	bcf	11,7
  4468                           
  4469                           ;main.c: 51: if(TMR1IE && TMR1IF)
  4470  047D  1683               	bsf	3,5	;RP0=1, select bank1
  4471  047E  1303               	bcf	3,6	;RP1=0, select bank1
  4472  047F  1C0C               	btfss	12,0
  4473  0480  2C96               	goto	i1l3989
  4474  0481  1283               	bcf	3,5	;RP0=0, select bank0
  4475  0482  1C0C               	btfss	12,0
  4476  0483  2C96               	goto	i1l3989
  4477  0484  302F               	movlw	47
  4478                           
  4479                           ;main.c: 52: {
  4480                           ;main.c: 53: TMR1IF = 0;
  4481  0485  100C               	bcf	12,0
  4482                           
  4483                           ;main.c: 54: TMR1L = 0X2F;
  4484  0486  008E               	movwf	14	;volatile
  4485                           
  4486                           ;main.c: 55: TMR1H = 0XF8;
  4487  0487  30F8               	movlw	248
  4488  0488  008F               	movwf	15	;volatile
  4489                           
  4490                           ;main.c: 57: rxtimeout++;
  4491  0489  0ABA               	incf	_rxtimeout,f
  4492  048A  1903               	skipnz
  4493  048B  0ABB               	incf	_rxtimeout+1,f
  4494                           
  4495                           ;main.c: 59: if(rxtimeout > 4000)
  4496  048C  300F               	movlw	15
  4497  048D  023B               	subwf	_rxtimeout+1,w
  4498  048E  30A1               	movlw	161
  4499  048F  1903               	skipnz
  4500  0490  023A               	subwf	_rxtimeout,w
  4501  0491  1C03               	skipc
  4502  0492  2C96               	goto	i1l3989
  4503                           
  4504                           ;main.c: 60: {
  4505                           ;main.c: 61: rxtimeout = 0;
  4506  0493  01BA               	clrf	_rxtimeout
  4507  0494  01BB               	clrf	_rxtimeout+1
  4508                           
  4509                           ;main.c: 62: lt8988_work_sta = SCAN;
  4510  0495  01BE               	clrf	_lt8988_work_sta
  4511  0496                     i1l3989:	
  4512                           
  4513                           ;main.c: 64: }
  4514                           ;main.c: 66: }
  4515                           ;main.c: 68: GIE = 1;
  4516  0496  178B               	bsf	11,7
  4517  0497  0871               	movf	??_ISR+1,w
  4518  0498  008A               	movwf	10
  4519  0499  0E70               	swapf	??_ISR^(0+-128),w
  4520  049A  0083               	movwf	3
  4521  049B  0EFE               	swapf	126,f
  4522  049C  0E7E               	swapf	126,w
  4523  049D  0009               	retfie
  4524  049E                     __end_of_ISR:	
  4525                           
  4526                           	psect	intentry
  4527  0004                     __pintentry:	
  4528                           ; Regs used in _ISR: [wreg+status,2+status,0]
  4529                           
  4530  0004                     interrupt_function:	
  4531  007E                     saved_w	set	btemp
  4532  0004  00FE               	movwf	btemp
  4533  0005  0E03               	swapf	3,w
  4534  0006  00F0               	movwf	??_ISR
  4535  0007  080A               	movf	10,w
  4536  0008  00F1               	movwf	??_ISR+1
  4537  0009  2C7C               	ljmp	_ISR
  4538                           
  4539                           	psect	text961
  4540  0000                     __ptext961:	
  4541 ;; =============== function _ISR ends ============
  4542                           
  4543  007E                     btemp	set	126	;btemp
  4544  007E                     wtemp0	set	126


HI-TECH Software PICC Macro Assembler V9.83 build 10920 
Symbol Table                                                                                   Wed Dec 04 19:36:39 2019

                                pc 0002          ??_LT8988_ble_to_localdata 0075  
                               fsr 0004                       get_crc@lenth 0076  
       LT8988_ble_tx_start@PDUDATA 0058                                _GIE 005F  
                              _RC0 0038                                _RC1 0039  
                              _RA6 002E                                _RA7 002F  
                              _ISR 047C                                _SR0 0CF6  
                              _SR1 0CF7                                u825 0442  
                   ??_LT8988_start 0072                                _ack 0574  
                              fsr0 0004                                indf 0000  
                             ?_ISR 0070     LT8988_ble_to_localdata@ADVDATA 0072  
                             ?_ack 0070                               l1121 0000  
                             l1108 0000                               l1140 0000  
                             l1150 0000                               l1135 0000  
                             l1127 02C4                               l1129 02C2  
                             l1147 0000                               l2221 0000  
                             l2230 031E                               l2231 0324  
                             l2224 0000                               l2240 0341  
                             l2232 0325                               l2400 0000  
                             l4001 0000                               l2241 0347  
                             l2233 032B                               l2242 0348  
                             l2234 032C                               l4011 0000  
                             l4003 0000                               l2243 0000  
                             l2235 0332                               l2227 0316  
                             l2403 0000                               l2411 0000  
                             l2236 0333                               l2228 0317  
                             l2260 0000                               l4021 0000  
                             l4013 0000                               l4005 0000  
                             l2237 0339                               l2229 031D  
                             l2238 033A                               l2254 0000  
                             l2342 0000                               l2414 0000  
                             l4023 0000                               l4015 0000  
                             l4007 0000                               l2239 0340  
                             l2263 0000                               l4025 0000  
                             l4017 0000                               l4009 0000  
                             l2257 0000                               l2266 0000  
                             l4027 0000                               l4019 0000  
                             l2275 0000                               l4035 0508  
                             l4043 0000                               l2348 0000  
                             l4037 0500                               l4029 0000  
                             l4045 0435                               l2278 0203  
                             l4047 044D                               l4039 0000  
                             l2394 0000                               l2387 00E5  
                             l2299 0000                               l4511 0000  
                             l4513 0000                               l4601 0000  
                             l4515 0000                               l4611 0000  
                             l4603 00B5                               l4517 0000  
                             l4509 0000                               l4541 0000  
                             l4621 00CE                               l4613 00C3  
                             l4605 00BE                               l4701 0000  
                             l4519 0000                               l4551 0475  
                             l4631 00DC                               l4615 00CC  
                             l4623 00D7                               l4703 0000  
                             l4711 0000                               l4537 0000  
                             l4705 0000                               l4721 0000  
                             l4713 0000                               l4801 0000  
                             l4491 0000                               l4547 045B  
                             l4563 0000                               l4643 0000  
                             l4635 00E6                               l4619 0000  
                             l4651 0000                               l4723 0000  
                             l4715 0000                               l4707 0000  
                             l4803 0000                               l4811 0000  
                             l4573 0000                               l4565 025F  
                             l4557 0000                               l4645 00F4  
                             l4629 0000                               l4661 0000  
                             l4653 0000                               l4733 02E9  
                             l4725 0000                               l4717 0000  
                             l4709 0000                               l4821 0396  
                             l4813 0000                               l4901 04D9  
                             l4487 0000                               l4583 0000  
                             l4575 026E                               l4567 0269  
                             l4639 00F2                               l4647 0000  
                             l4663 0000                               l4671 0000  
                             l4743 0000                               l4735 0000  
                             l4727 0000                               l4719 0000  
                             l4807 0000                               l4815 0000  
                             l4831 0000                               l4911 0000  
                             l4903 0000                               l4489 058C  
                             l4585 027D                               l4577 0278  
                             l4593 0000                               l4649 0000  
                             l4657 0000                               l4665 0011  
                             l4681 0000                               l4673 0000  
                             l4737 0000                               l4729 02E7  
                             l4761 0000                               l4809 0368  
                             l4825 039C                               l4817 0000  
                             l4841 0000                               l4833 0000  
                             l4905 0000                               l4595 00AA  
                             l4587 0000                               l4667 0089  
                             l4659 0000                               l4683 0000  
                             l4675 0000                               l4691 0000  
                             l4747 030E                               l4739 0000  
                             l4755 0000                               l4763 0000  
                             l4851 0000                               l4915 0000  
                             l4907 0000                               l4597 00B3  
                             l4685 0000                               l4677 0000  
                             l4669 0000                               l4693 0000  
                             l4749 02F2                               l4757 0000  
                             l4765 0000                               l4773 01BE  
                             l4781 0000                               l4829 03A6  
                             l4861 0000                               l4853 02B8  
                             l4909 0000                               l3991 0000  
                             l4687 0000                               l4679 0000  
                             l4695 0000                               l4767 0000  
                             l4783 0000                               l4863 02CD  
                             l4839 029B                               l4871 0000  
                             l3993 0000                               l4689 0000  
                             l4697 0000                               l4777 01DC  
                             l4769 0000                               l4793 0425  
                             l4785 0000                               l4865 02CF  
                             l4849 02B4                               l4873 0000  
                             l4881 0000                               l3995 0000  
                             l4699 0000                               l4867 0000  
                             l4859 0000                               l4875 0000  
                             l4891 0000                               l4883 0000  
                             l3997 0000                               l4789 0419  
                             l4797 0000                               l4877 0000  
                             l4869 0000                               l4893 0000  
                             l3999 0000                               l4799 0000  
                             l4879 0000                               l4895 0000  
                             l4889 0553                               l4897 0000  
                             l4899 04E3                               u1714 0470  
                             u1715 046E                               u1905 0035  
                             u1915 0041                               u1925 0049  
                             u1694 0461                               u1695 045F  
                             u1935 0051                               u1945 006E  
                             u1955 001E                               _PEIE 005E  
                             u1895 002D                               u1975 030B  
                    Send_Byte@DATA 0072            LT8988_pdudata_white@len 0073  
                             _STRA 0CE8                               _STRB 0CE9  
                             _STRC 0CEA                               _STRD 0CEB  
                             _WREN 0C62                               _WPUA 0095  
                             _WPUC 0088                               _Init 03DA  
                 ??_LT8988_ReadBUF 0073        LT8988_pdudata_white@PDUDATA 0072  
                 ??_LT8988_ReadReg 0073                               _nack 056B  
                             _main 04D4                               btemp 007E  
                LT8988_ReadBUF@len 0077                               start 000A  
                  __end_of_DelayMs 0513      __size_of_LT8988_pdudata_white 002D  
             get_crc@user_data_buf 0056                              ??_ISR 0070  
                            ??_ack 0072       __size_of_LT8988_ble_rx_start 0059  
                            ?_Init 0070       __size_of_LT8988_ble_tx_start 0028  
                            _C1SEN 0CF5                              _C2REN 0CF4  
                            ?_nack 0070                              ?_main 0070  
                            _EEPGD 0C67                              _ANSEL 0091  
                            _T1CON 0010                              _TMR1H 000F  
                            _TMR1L 000E                              _PORTA 0005  
                            _PORTC 0007                  LT8988_ReadReg@reg 0073  
                            _SRCON 019E                              _PULSR 0CF2  
                            _PULSS 0CF3                              _TRISA 0085  
                            _TRISC 0087                      _lt8988_ble_rx 0551  
                    _lt8988_ble_tx 049E                              __RegH 003C  
                            __RegL 007B                    _ble_chanel_scan 0298  
                  __end_of_get_crc 00A5              __end_of_ble_read_fifo 05A1  
                            pclath 000A                 LT8988_ReadBUF@pBuf 0075  
                            status 0003                              wtemp0 007E  
                     __end_of_Init 0406                  ??_LT8988_WriteReg 0075  
                     __end_of_nack 0574                       __end_of_main 04EA  
                           ??_Init 0072      __size_of_LT8988_ble_rx_enable 0005  
     __end_of_LT8988_read_ble_fifo 0431                             ??_nack 0072  
          ??_LT8988_write_ble_fifo 004D                             ??_main 007B  
    __size_of_LT8988_ble_tx_enable 000F                     ?_lt8988_ble_rx 0070  
                   ?_lt8988_ble_tx 0070                             _ADCON0 001F  
                           _ADCON1 009F                             _CMCON0 0019  
    __size_of_LT8988_ble_write_reg 0007                             i1l1105 0000  
                           i1l3981 0000                             i1l3983 0000  
                           i1l3975 0000                             i1l3985 0000  
                           i1l3989 0496                             _INTCON 000B  
             __size_of_LT8988_INIT 0057                          ??_DelayMs 0072  
                           _OSCCON 008F                             _TMR1IE 0460  
                           _TMR1IF 0060                             _OPTION 0081  
                           _TMR1ON 0080                             _TRISC1 0439  
               __size_of_Read_Byte 002C               __size_of_LT8988_stop 0007  
             __end_of_LT8988_start 0599                 __size_of_Send_Byte 003B  
                           _ledsta 003D            __end_of_ble_chanel_scan 02D5  
                           _rxflag 003F                          ??_get_crc 004D  
                           clrloop 057E                             saved_w 007E  
            LT8988_pdudata_white@i 0079                     __pcstackCOMMON 0070  
                     __pidataBANK0 04BA                 __size_of_check_sum 0027  
                  ??_lt8988_ble_rx 007B                    ??_lt8988_ble_tx 007B  
                __end_of_Read_Byte 03DA                  __end_of_Send_Byte 034B  
                       __pbssBANK0 003A                _LT8988_ble_rx_start 01A1  
              _LT8988_ble_tx_start 0380               _LT8988_read_ble_fifo 0406  
                       __pmaintext 04D4                         __pintentry 0004  
             ?_LT8988_ble_rx_start 0070               ?_LT8988_ble_tx_start 0058  
                 ?_ble_chanel_scan 0070                   ble_read_fifo@buf 0078  
           LT8988_write_ble_fifo@i 004F       __end_of_LT8988_pdudata_white 0287  
                          _PDUDATA 0020                 __size_of_roll_data 0024  
                          _MSCKCON 001B             LT8988_ble_tx_start@len 0059  
                          _PSTRCON 019D                            _STRSYNC 0CEC  
                __end_of_check_sum 0458              __size_of_LT8988_start 0006  
                  _LT8988_WriteReg 0542                            _DelayMs 04FF  
            ?_LT8988_read_ble_fifo 004F           ?_LT8988_ble_to_localdata 0072  
            ??_LT8988_ble_rx_start 0079  LT8988_ble_to_localdata@adv_offset 0074  
            ??_LT8988_ble_tx_start 007A                         check_sum@i 0077  
                          _get_crc 000B                       __size_of_ISR 0022  
   __size_of_LT8988_write_ble_fifo 0030                       __size_of_ack 0009  
    __end_of_LT8988_write_ble_fifo 037B                       _LT8988_start 0593  
         LT8988_write_ble_fifo@len 0079               end_of_initialization 0522  
     __end_of_LT8988_ble_rx_enable 059E                    _lt8988_work_sta 003E  
                          init_ram 0528       __end_of_LT8988_ble_tx_enable 0542  
                roll_data@roll_out 0074                  __end_of_roll_data 047C  
     __end_of_LT8988_ble_write_reg 058C            __size_of_LT8988_ReadBUF 003B  
           __size_of_ble_read_fifo 0003            __size_of_LT8988_ReadReg 0015  
                    Read_Byte@byte 0072                          _RXADVDATA 0040  
    LT8988_read_ble_fifo@RXADVDATA 004F            __end_of_LT8988_WriteReg 0551  
                    ??_LT8988_INIT 0076                      ??_LT8988_stop 0072  
           ??_LT8988_read_ble_fifo 007A    __end_of_LT8988_ble_to_localdata 0100  
             _LT8988_pdudata_white 025A          LT8988_ble_tx_start@chanel 007A  
       LT8988_pdudata_white@chanel 0078                         _write_sync 055F  
    LT8988_ble_to_localdata@chanel 004D                   ble_chanel_scan@i 0052  
              start_initialization 0513                        __end_of_ISR 049E  
                      __end_of_ack 057D                          _Read_Byte 03AE  
                    _ble_read_fifo 059E                          _Send_Byte 0310  
              __end_of_LT8988_INIT 025A              ?_LT8988_pdudata_white 0072  
              __end_of_LT8988_stop 0593                        __pdataBANK0 0020  
             _LT8988_ble_rx_enable 0599               _LT8988_ble_tx_enable 0533  
            __end_of_lt8988_ble_rx 055F              __end_of_lt8988_ble_tx 04BA  
                      __pbssCOMMON 007B                      __pcstackBANK0 004D  
                 ?_LT8988_WriteReg 0073                         ?_Read_Byte 0070  
                   ?_ble_read_fifo 0070               _LT8988_ble_write_reg 0585  
                         ?_DelayMs 0070                         ?_Send_Byte 0070  
                        _check_sum 0431                       check_sum@buf 0076  
                     check_sum@len 0072                       check_sum@sum 0075  
                   _LT8988_ReadBUF 02D5                     _LT8988_ReadReg 04EA  
                        __ptext931 0551                          __ptext940 059E  
                        __ptext932 049E                          __ptext941 0585  
                        __ptext933 0298                          __ptext950 00A5  
                        __ptext942 055F                          __ptext934 0380  
                        __ptext951 025A                          __ptext943 0203  
                        __ptext935 034B                          __ptext960 047C  
                        __ptext952 0458                          __ptext944 02D5  
                        __ptext936 0599                          __ptext961 0000  
                        __ptext953 03AE                          __ptext945 0542  
                        __ptext937 0406                          __ptext954 0310  
                        __ptext946 04EA                          __ptext938 01A1  
                        __ptext955 058C                          __ptext947 000B  
                        __ptext939 0533                          __ptext956 0593  
                        __ptext948 056B                          __ptext957 0431  
                        __ptext949 0574                          __ptext958 04FF  
                        __ptext959 03DA              ?_LT8988_ble_rx_enable 0070  
                 LT8988_WriteReg@H 0073                   LT8988_WriteReg@L 0074  
                      ?_write_sync 0070                          __pstrings 0126  
         LT8988_ble_to_localdata@i 004E                           ?_get_crc 0076  
            ?_LT8988_ble_tx_enable 0070   __size_of_LT8988_ble_to_localdata 005B  
         __size_of_ble_chanel_scan 003D                        _LT8988_INIT 0203  
            ?_LT8988_ble_write_reg 0076                        _LT8988_stop 058C  
                interrupt_function 0004            LT8988_read_ble_fifo@len 0050  
           ??_LT8988_pdudata_white 0074                         ?_check_sum 0072  
      __end_of_LT8988_ble_rx_start 01FA                   roll_data@roll_in 0073  
           __end_of_LT8988_ReadBUF 0310             __end_of_LT8988_ReadReg 04FF  
      __end_of_LT8988_ble_tx_start 03A8                 LT8988_WriteReg@reg 0075  
                        _roll_data 0458                          get_crc@c0 0052  
                        get_crc@c1 0053                          get_crc@c2 0054  
                      __stringbase 012B                         roll_data@i 0075  
                  ??_ble_read_fifo 0078                    LT8988_ReadBUF@i 0076  
                      ??_Read_Byte 0072              _LT8988_write_ble_fifo 034B  
                        _rxtimeout 003A                   __size_of_DelayMs 0014  
                      ??_Send_Byte 0072                      _WHITE_INDEX37 012C  
                    _WHITE_INDEX38 0153                      _WHITE_INDEX39 017A  
              __size_of_write_sync 000C                    ?_LT8988_ReadBUF 0070  
                  ?_LT8988_ReadReg 0070                          init_fetch 0524  
           ??_LT8988_ble_rx_enable 0079                         ?_roll_data 0070  
           ??_LT8988_ble_tx_enable 0079                   __size_of_get_crc 009A  
           ??_LT8988_ble_write_reg 0078        LT8988_write_ble_fifo@txdata 0050  
          LT8988_ble_write_reg@reg 0078              ble_chanel_scan@chanel 0051  
                    __size_of_Init 002C                      __size_of_nack 0009  
                    __size_of_main 0016                  ??_ble_chanel_scan 007B  
    __size_of_LT8988_read_ble_fifo 002B                        ??_check_sum 0073  
                         clear_ram 057D                           get_crc@e 0057  
                         get_crc@i 0055                         DelayMs@Tms 0074  
                       DelayMs@dly 0072            _LT8988_ble_to_localdata 00A5  
           ?_LT8988_write_ble_fifo 0079                           intlevel1 0000  
       LT8988_ble_to_localdata@len 0073                          stringcode 0126  
                   lt8988_ble_rx@i 0053         LT8988_read_ble_fifo@chanel 007A  
       LT8988_ble_write_reg@second 0077                        ??_roll_data 0072  
                     ??_write_sync 0076                      ?_LT8988_start 0070  
                         stringdir 0126                           stringtab 0126  
        LT8988_ble_write_reg@first 0076                       ?_LT8988_INIT 0070  
                     ?_LT8988_stop 0070           __size_of_LT8988_WriteReg 000F  
               __end_of_write_sync 056B          LT8988_ble_rx_start@chanel 0079  
           __size_of_lt8988_ble_rx 000E             __size_of_lt8988_ble_tx 001C  
